
P1LogCurrentUseToSD.elf:     file format elf32-avr

Sections:
Idx Name          Size      VMA       LMA       File off  Algn
  0 .data         00000050  00804000  00003f26  00003fba  2**0
                  CONTENTS, ALLOC, LOAD, DATA
  1 .text         00003f26  00000000  00000000  00000094  2**1
                  CONTENTS, ALLOC, LOAD, READONLY, CODE
  2 .bss          0000000e  00804050  00804050  0000400a  2**0
                  ALLOC
  3 .comment      0000005c  00000000  00000000  0000400a  2**0
                  CONTENTS, READONLY
  4 .note.gnu.avr.deviceinfo 00000040  00000000  00000000  00004068  2**2
                  CONTENTS, READONLY
  5 .debug_aranges 000002d8  00000000  00000000  000040a8  2**3
                  CONTENTS, READONLY, DEBUGGING
  6 .debug_info   00008c9f  00000000  00000000  00004380  2**0
                  CONTENTS, READONLY, DEBUGGING
  7 .debug_abbrev 00003624  00000000  00000000  0000d01f  2**0
                  CONTENTS, READONLY, DEBUGGING
  8 .debug_line   000032b4  00000000  00000000  00010643  2**0
                  CONTENTS, READONLY, DEBUGGING
  9 .debug_frame  00000eb0  00000000  00000000  000138f8  2**2
                  CONTENTS, READONLY, DEBUGGING
 10 .debug_str    000023dc  00000000  00000000  000147a8  2**0
                  CONTENTS, READONLY, DEBUGGING
 11 .debug_loc    00006346  00000000  00000000  00016b84  2**0
                  CONTENTS, READONLY, DEBUGGING
 12 .debug_ranges 00000278  00000000  00000000  0001ceca  2**0
                  CONTENTS, READONLY, DEBUGGING

Disassembly of section .text:

00000000 <__vectors>:
       0:	0c 94 80 00 	jmp	0x100	; 0x100 <__ctors_end>
       4:	0c 94 9f 00 	jmp	0x13e	; 0x13e <__bad_interrupt>
       8:	0c 94 9f 00 	jmp	0x13e	; 0x13e <__bad_interrupt>
       c:	0c 94 9f 00 	jmp	0x13e	; 0x13e <__bad_interrupt>
      10:	0c 94 9f 00 	jmp	0x13e	; 0x13e <__bad_interrupt>
      14:	0c 94 9f 00 	jmp	0x13e	; 0x13e <__bad_interrupt>
      18:	0c 94 9f 00 	jmp	0x13e	; 0x13e <__bad_interrupt>
      1c:	0c 94 9f 00 	jmp	0x13e	; 0x13e <__bad_interrupt>
      20:	0c 94 9f 00 	jmp	0x13e	; 0x13e <__bad_interrupt>
      24:	0c 94 b0 16 	jmp	0x2d60	; 0x2d60 <__vector_9>
      28:	0c 94 9f 00 	jmp	0x13e	; 0x13e <__bad_interrupt>
      2c:	0c 94 9f 00 	jmp	0x13e	; 0x13e <__bad_interrupt>
      30:	0c 94 9f 00 	jmp	0x13e	; 0x13e <__bad_interrupt>
      34:	0c 94 9f 00 	jmp	0x13e	; 0x13e <__bad_interrupt>
      38:	0c 94 9f 00 	jmp	0x13e	; 0x13e <__bad_interrupt>
      3c:	0c 94 9f 00 	jmp	0x13e	; 0x13e <__bad_interrupt>
      40:	0c 94 9f 00 	jmp	0x13e	; 0x13e <__bad_interrupt>
      44:	0c 94 9f 00 	jmp	0x13e	; 0x13e <__bad_interrupt>
      48:	0c 94 9f 00 	jmp	0x13e	; 0x13e <__bad_interrupt>
      4c:	0c 94 9f 00 	jmp	0x13e	; 0x13e <__bad_interrupt>
      50:	0c 94 9f 00 	jmp	0x13e	; 0x13e <__bad_interrupt>
      54:	0c 94 9f 00 	jmp	0x13e	; 0x13e <__bad_interrupt>
      58:	0c 94 9f 00 	jmp	0x13e	; 0x13e <__bad_interrupt>
      5c:	0c 94 9f 00 	jmp	0x13e	; 0x13e <__bad_interrupt>
      60:	0c 94 9f 00 	jmp	0x13e	; 0x13e <__bad_interrupt>
      64:	0c 94 9f 00 	jmp	0x13e	; 0x13e <__bad_interrupt>
      68:	0c 94 9f 00 	jmp	0x13e	; 0x13e <__bad_interrupt>
      6c:	0c 94 9f 00 	jmp	0x13e	; 0x13e <__bad_interrupt>
      70:	0c 94 9f 00 	jmp	0x13e	; 0x13e <__bad_interrupt>
      74:	0c 94 9f 00 	jmp	0x13e	; 0x13e <__bad_interrupt>
      78:	0c 94 9f 00 	jmp	0x13e	; 0x13e <__bad_interrupt>
      7c:	0c 94 9f 00 	jmp	0x13e	; 0x13e <__bad_interrupt>
      80:	0c 94 9f 00 	jmp	0x13e	; 0x13e <__bad_interrupt>
      84:	0c 94 9f 00 	jmp	0x13e	; 0x13e <__bad_interrupt>
      88:	0c 94 9f 00 	jmp	0x13e	; 0x13e <__bad_interrupt>
      8c:	0c 94 9f 00 	jmp	0x13e	; 0x13e <__bad_interrupt>
      90:	0c 94 9f 00 	jmp	0x13e	; 0x13e <__bad_interrupt>
      94:	0c 94 9f 00 	jmp	0x13e	; 0x13e <__bad_interrupt>
      98:	0c 94 9f 00 	jmp	0x13e	; 0x13e <__bad_interrupt>
      9c:	0c 94 9f 00 	jmp	0x13e	; 0x13e <__bad_interrupt>
      a0:	0c 94 9f 00 	jmp	0x13e	; 0x13e <__bad_interrupt>
      a4:	0c 94 9f 00 	jmp	0x13e	; 0x13e <__bad_interrupt>
      a8:	0c 94 9f 00 	jmp	0x13e	; 0x13e <__bad_interrupt>
      ac:	0c 94 9f 00 	jmp	0x13e	; 0x13e <__bad_interrupt>
      b0:	0c 94 9f 00 	jmp	0x13e	; 0x13e <__bad_interrupt>
      b4:	0c 94 9f 00 	jmp	0x13e	; 0x13e <__bad_interrupt>
      b8:	0c 94 9f 00 	jmp	0x13e	; 0x13e <__bad_interrupt>
      bc:	0c 94 9f 00 	jmp	0x13e	; 0x13e <__bad_interrupt>
      c0:	0c 94 9f 00 	jmp	0x13e	; 0x13e <__bad_interrupt>
      c4:	0c 94 9f 00 	jmp	0x13e	; 0x13e <__bad_interrupt>
      c8:	0c 94 9f 00 	jmp	0x13e	; 0x13e <__bad_interrupt>
      cc:	0c 94 9f 00 	jmp	0x13e	; 0x13e <__bad_interrupt>
      d0:	0c 94 9f 00 	jmp	0x13e	; 0x13e <__bad_interrupt>
      d4:	0c 94 9f 00 	jmp	0x13e	; 0x13e <__bad_interrupt>
      d8:	0c 94 9f 00 	jmp	0x13e	; 0x13e <__bad_interrupt>
      dc:	0c 94 9f 00 	jmp	0x13e	; 0x13e <__bad_interrupt>
      e0:	0c 94 9f 00 	jmp	0x13e	; 0x13e <__bad_interrupt>
      e4:	0c 94 9f 00 	jmp	0x13e	; 0x13e <__bad_interrupt>
      e8:	0c 94 9f 00 	jmp	0x13e	; 0x13e <__bad_interrupt>
      ec:	0c 94 9f 00 	jmp	0x13e	; 0x13e <__bad_interrupt>
      f0:	0c 94 9f 00 	jmp	0x13e	; 0x13e <__bad_interrupt>

000000f4 <__trampolines_end>:
      f4:	63 64       	ori	r22, 0x43	; 67
      f6:	69 6e       	ori	r22, 0xE9	; 233
      f8:	6f 70       	andi	r22, 0x0F	; 15
      fa:	73 75       	andi	r23, 0x53	; 83
      fc:	78 58       	subi	r23, 0x88	; 136
      fe:	5b 00       	.word	0x005b	; ????

00000100 <__ctors_end>:
     100:	11 24       	eor	r1, r1
     102:	1f be       	out	0x3f, r1	; 63
     104:	cf ef       	ldi	r28, 0xFF	; 255
     106:	cd bf       	out	0x3d, r28	; 61
     108:	df e7       	ldi	r29, 0x7F	; 127
     10a:	de bf       	out	0x3e, r29	; 62

0000010c <__do_copy_data>:
     10c:	10 e4       	ldi	r17, 0x40	; 64
     10e:	a0 e0       	ldi	r26, 0x00	; 0
     110:	b0 e4       	ldi	r27, 0x40	; 64
     112:	e6 e2       	ldi	r30, 0x26	; 38
     114:	ff e3       	ldi	r31, 0x3F	; 63
     116:	00 e0       	ldi	r16, 0x00	; 0
     118:	0b bf       	out	0x3b, r16	; 59
     11a:	02 c0       	rjmp	.+4      	; 0x120 <__do_copy_data+0x14>
     11c:	07 90       	elpm	r0, Z+
     11e:	0d 92       	st	X+, r0
     120:	a0 35       	cpi	r26, 0x50	; 80
     122:	b1 07       	cpc	r27, r17
     124:	d9 f7       	brne	.-10     	; 0x11c <__do_copy_data+0x10>

00000126 <__do_clear_bss>:
     126:	20 e4       	ldi	r18, 0x40	; 64
     128:	a0 e5       	ldi	r26, 0x50	; 80
     12a:	b0 e4       	ldi	r27, 0x40	; 64
     12c:	01 c0       	rjmp	.+2      	; 0x130 <.do_clear_bss_start>

0000012e <.do_clear_bss_loop>:
     12e:	1d 92       	st	X+, r1

00000130 <.do_clear_bss_start>:
     130:	ae 35       	cpi	r26, 0x5E	; 94
     132:	b2 07       	cpc	r27, r18
     134:	e1 f7       	brne	.-8      	; 0x12e <.do_clear_bss_loop>
     136:	0e 94 db 16 	call	0x2db6	; 0x2db6 <main>
     13a:	0c 94 91 1f 	jmp	0x3f22	; 0x3f22 <_exit>

0000013e <__bad_interrupt>:
     13e:	0c 94 00 00 	jmp	0	; 0x0 <__vectors>

00000142 <disk_status>:
	BYTE pdrv		/* Physical drive nmuber to identify the drive */
)
{
	DSTATUS stat;

	int result = mmc_disk_status();
     142:	0e 94 8d 15 	call	0x2b1a	; 0x2b1a <mmc_disk_status>

	if (result == RES_OK)
     146:	81 11       	cpse	r24, r1
	{
		return RES_OK;
	}

	return STA_NOINIT;
     148:	81 e0       	ldi	r24, 0x01	; 1
}
     14a:	08 95       	ret

0000014c <disk_initialize>:

DSTATUS disk_initialize (
	BYTE pdrv				/* Physical drive nmuber to identify the drive */
)
{
	return mmc_disk_initialize();
     14c:	0e 94 ba 14 	call	0x2974	; 0x2974 <mmc_disk_initialize>
}
     150:	08 95       	ret

00000152 <disk_read>:
	BYTE pdrv,		/* Physical drive nmuber to identify the drive */
	BYTE *buff,		/* Data buffer to store read data */
	LBA_t sector,	/* Start sector in LBA */
	UINT count		/* Number of sectors to read */
)
{
     152:	0f 93       	push	r16
     154:	1f 93       	push	r17
     156:	cb 01       	movw	r24, r22
     158:	ba 01       	movw	r22, r20
     15a:	a9 01       	movw	r20, r18
     15c:	98 01       	movw	r18, r16
	DRESULT res;

	int result = mmc_disk_read(buff, sector, count);
     15e:	0e 94 90 15 	call	0x2b20	; 0x2b20 <mmc_disk_read>

	if (result == RES_OK)
     162:	81 11       	cpse	r24, r1
	{
		return RES_OK;
	}
	
	return RES_PARERR;
     164:	84 e0       	ldi	r24, 0x04	; 4
}
     166:	1f 91       	pop	r17
     168:	0f 91       	pop	r16
     16a:	08 95       	ret

0000016c <disk_write>:
	BYTE pdrv,			/* Physical drive nmuber to identify the drive */
	const BYTE *buff,	/* Data to be written */
	LBA_t sector,		/* Start sector in LBA */
	UINT count			/* Number of sectors to write */
)
{
     16c:	0f 93       	push	r16
     16e:	1f 93       	push	r17
     170:	cb 01       	movw	r24, r22
     172:	ba 01       	movw	r22, r20
     174:	a9 01       	movw	r20, r18
     176:	98 01       	movw	r18, r16
	DRESULT res;
	int result;

	result = mmc_disk_write(buff, sector, count);
     178:	0e 94 de 15 	call	0x2bbc	; 0x2bbc <mmc_disk_write>

	if (result == RES_OK)
     17c:	81 11       	cpse	r24, r1
	{
		return RES_OK;
	}

	return RES_PARERR;
     17e:	84 e0       	ldi	r24, 0x04	; 4
}
     180:	1f 91       	pop	r17
     182:	0f 91       	pop	r16
     184:	08 95       	ret

00000186 <disk_ioctl>:

		return res;
	}

	return RES_PARERR;
}
     186:	84 e0       	ldi	r24, 0x04	; 4
     188:	08 95       	ret

0000018a <disk_timerproc>:
/*-----------------------------------------------------------------------*/


void disk_timerproc (void)
{
	mmc_disk_timerproc();
     18a:	0e 94 4d 16 	call	0x2c9a	; 0x2c9a <mmc_disk_timerproc>
     18e:	08 95       	ret

00000190 <ld_word>:
		memcpy(rbuff, fp->buf + fp->fptr % SS(fs), rcnt);	/* Extract partial sector */
#endif
	}

	LEAVE_FF(fs, FR_OK);
}
     190:	fc 01       	movw	r30, r24
     192:	21 81       	ldd	r18, Z+1	; 0x01
     194:	30 e0       	ldi	r19, 0x00	; 0
     196:	32 2f       	mov	r19, r18
     198:	22 27       	eor	r18, r18
     19a:	80 81       	ld	r24, Z
     19c:	a9 01       	movw	r20, r18
     19e:	48 2b       	or	r20, r24
     1a0:	ca 01       	movw	r24, r20
     1a2:	08 95       	ret

000001a4 <ld_dword>:
     1a4:	fc 01       	movw	r30, r24
     1a6:	63 81       	ldd	r22, Z+3	; 0x03
     1a8:	86 2f       	mov	r24, r22
     1aa:	90 e0       	ldi	r25, 0x00	; 0
     1ac:	a0 e0       	ldi	r26, 0x00	; 0
     1ae:	b0 e0       	ldi	r27, 0x00	; 0
     1b0:	ba 2f       	mov	r27, r26
     1b2:	a9 2f       	mov	r26, r25
     1b4:	98 2f       	mov	r25, r24
     1b6:	88 27       	eor	r24, r24
     1b8:	22 81       	ldd	r18, Z+2	; 0x02
     1ba:	82 2b       	or	r24, r18
     1bc:	ba 2f       	mov	r27, r26
     1be:	a9 2f       	mov	r26, r25
     1c0:	98 2f       	mov	r25, r24
     1c2:	88 27       	eor	r24, r24
     1c4:	21 81       	ldd	r18, Z+1	; 0x01
     1c6:	82 2b       	or	r24, r18
     1c8:	ba 2f       	mov	r27, r26
     1ca:	a9 2f       	mov	r26, r25
     1cc:	98 2f       	mov	r25, r24
     1ce:	88 27       	eor	r24, r24
     1d0:	20 81       	ld	r18, Z
     1d2:	bc 01       	movw	r22, r24
     1d4:	cd 01       	movw	r24, r26
     1d6:	62 2b       	or	r22, r18
     1d8:	08 95       	ret

000001da <st_word>:
     1da:	fc 01       	movw	r30, r24
     1dc:	60 83       	st	Z, r22
     1de:	71 83       	std	Z+1, r23	; 0x01
     1e0:	08 95       	ret

000001e2 <st_dword>:
     1e2:	fc 01       	movw	r30, r24
     1e4:	40 83       	st	Z, r20
     1e6:	51 83       	std	Z+1, r21	; 0x01
     1e8:	62 83       	std	Z+2, r22	; 0x02
     1ea:	73 83       	std	Z+3, r23	; 0x03
     1ec:	08 95       	ret

000001ee <dbc_1st>:
     1ee:	81 38       	cpi	r24, 0x81	; 129
     1f0:	48 f0       	brcs	.+18     	; 0x204 <__EEPROM_REGION_LENGTH__+0x4>
     1f2:	80 3a       	cpi	r24, 0xA0	; 160
     1f4:	50 f0       	brcs	.+20     	; 0x20a <__EEPROM_REGION_LENGTH__+0xa>
     1f6:	80 3e       	cpi	r24, 0xE0	; 224
     1f8:	58 f0       	brcs	.+22     	; 0x210 <__EEPROM_REGION_LENGTH__+0x10>
     1fa:	8d 3f       	cpi	r24, 0xFD	; 253
     1fc:	60 f0       	brcs	.+24     	; 0x216 <__EEPROM_REGION_LENGTH__+0x16>
     1fe:	80 e0       	ldi	r24, 0x00	; 0
     200:	90 e0       	ldi	r25, 0x00	; 0
     202:	08 95       	ret
     204:	80 e0       	ldi	r24, 0x00	; 0
     206:	90 e0       	ldi	r25, 0x00	; 0
     208:	08 95       	ret
     20a:	81 e0       	ldi	r24, 0x01	; 1
     20c:	90 e0       	ldi	r25, 0x00	; 0
     20e:	08 95       	ret
     210:	80 e0       	ldi	r24, 0x00	; 0
     212:	90 e0       	ldi	r25, 0x00	; 0
     214:	08 95       	ret
     216:	81 e0       	ldi	r24, 0x01	; 1
     218:	90 e0       	ldi	r25, 0x00	; 0
     21a:	08 95       	ret

0000021c <dbc_2nd>:
     21c:	80 34       	cpi	r24, 0x40	; 64
     21e:	58 f0       	brcs	.+22     	; 0x236 <dbc_2nd+0x1a>
     220:	8f 37       	cpi	r24, 0x7F	; 127
     222:	60 f0       	brcs	.+24     	; 0x23c <dbc_2nd+0x20>
     224:	80 38       	cpi	r24, 0x80	; 128
     226:	10 f0       	brcs	.+4      	; 0x22c <dbc_2nd+0x10>
     228:	8d 3f       	cpi	r24, 0xFD	; 253
     22a:	58 f0       	brcs	.+22     	; 0x242 <dbc_2nd+0x26>
     22c:	88 23       	and	r24, r24
     22e:	61 f0       	breq	.+24     	; 0x248 <dbc_2nd+0x2c>
     230:	80 e0       	ldi	r24, 0x00	; 0
     232:	90 e0       	ldi	r25, 0x00	; 0
     234:	08 95       	ret
     236:	80 e0       	ldi	r24, 0x00	; 0
     238:	90 e0       	ldi	r25, 0x00	; 0
     23a:	08 95       	ret
     23c:	81 e0       	ldi	r24, 0x01	; 1
     23e:	90 e0       	ldi	r25, 0x00	; 0
     240:	08 95       	ret
     242:	81 e0       	ldi	r24, 0x01	; 1
     244:	90 e0       	ldi	r25, 0x00	; 0
     246:	08 95       	ret
     248:	81 e0       	ldi	r24, 0x01	; 1
     24a:	90 e0       	ldi	r25, 0x00	; 0
     24c:	08 95       	ret

0000024e <clst2sect>:
     24e:	cf 92       	push	r12
     250:	df 92       	push	r13
     252:	ef 92       	push	r14
     254:	ff 92       	push	r15
     256:	fc 01       	movw	r30, r24
     258:	9a 01       	movw	r18, r20
     25a:	ab 01       	movw	r20, r22
     25c:	22 50       	subi	r18, 0x02	; 2
     25e:	31 09       	sbc	r19, r1
     260:	41 09       	sbc	r20, r1
     262:	51 09       	sbc	r21, r1
     264:	c3 88       	ldd	r12, Z+19	; 0x13
     266:	d4 88       	ldd	r13, Z+20	; 0x14
     268:	e5 88       	ldd	r14, Z+21	; 0x15
     26a:	f6 88       	ldd	r15, Z+22	; 0x16
     26c:	82 e0       	ldi	r24, 0x02	; 2
     26e:	c8 1a       	sub	r12, r24
     270:	d1 08       	sbc	r13, r1
     272:	e1 08       	sbc	r14, r1
     274:	f1 08       	sbc	r15, r1
     276:	2c 15       	cp	r18, r12
     278:	3d 05       	cpc	r19, r13
     27a:	4e 05       	cpc	r20, r14
     27c:	5f 05       	cpc	r21, r15
     27e:	68 f4       	brcc	.+26     	; 0x29a <clst2sect+0x4c>
     280:	c7 a0       	ldd	r12, Z+39	; 0x27
     282:	d0 a4       	ldd	r13, Z+40	; 0x28
     284:	e1 a4       	ldd	r14, Z+41	; 0x29
     286:	f2 a4       	ldd	r15, Z+42	; 0x2a
     288:	a1 85       	ldd	r26, Z+9	; 0x09
     28a:	b2 85       	ldd	r27, Z+10	; 0x0a
     28c:	0e 94 f2 17 	call	0x2fe4	; 0x2fe4 <__muluhisi3>
     290:	6c 0d       	add	r22, r12
     292:	7d 1d       	adc	r23, r13
     294:	8e 1d       	adc	r24, r14
     296:	9f 1d       	adc	r25, r15
     298:	03 c0       	rjmp	.+6      	; 0x2a0 <clst2sect+0x52>
     29a:	60 e0       	ldi	r22, 0x00	; 0
     29c:	70 e0       	ldi	r23, 0x00	; 0
     29e:	cb 01       	movw	r24, r22
     2a0:	ff 90       	pop	r15
     2a2:	ef 90       	pop	r14
     2a4:	df 90       	pop	r13
     2a6:	cf 90       	pop	r12
     2a8:	08 95       	ret

000002aa <ld_clust>:
     2aa:	cf 92       	push	r12
     2ac:	df 92       	push	r13
     2ae:	ef 92       	push	r14
     2b0:	ff 92       	push	r15
     2b2:	0f 93       	push	r16
     2b4:	1f 93       	push	r17
     2b6:	cf 93       	push	r28
     2b8:	df 93       	push	r29
     2ba:	8c 01       	movw	r16, r24
     2bc:	eb 01       	movw	r28, r22
     2be:	cb 01       	movw	r24, r22
     2c0:	4a 96       	adiw	r24, 0x1a	; 26
     2c2:	0e 94 c8 00 	call	0x190	; 0x190 <ld_word>
     2c6:	6c 01       	movw	r12, r24
     2c8:	e1 2c       	mov	r14, r1
     2ca:	f1 2c       	mov	r15, r1
     2cc:	f8 01       	movw	r30, r16
     2ce:	80 81       	ld	r24, Z
     2d0:	83 30       	cpi	r24, 0x03	; 3
     2d2:	69 f4       	brne	.+26     	; 0x2ee <ld_clust+0x44>
     2d4:	ce 01       	movw	r24, r28
     2d6:	44 96       	adiw	r24, 0x14	; 20
     2d8:	0e 94 c8 00 	call	0x190	; 0x190 <ld_word>
     2dc:	a0 e0       	ldi	r26, 0x00	; 0
     2de:	b0 e0       	ldi	r27, 0x00	; 0
     2e0:	dc 01       	movw	r26, r24
     2e2:	99 27       	eor	r25, r25
     2e4:	88 27       	eor	r24, r24
     2e6:	c8 2a       	or	r12, r24
     2e8:	d9 2a       	or	r13, r25
     2ea:	ea 2a       	or	r14, r26
     2ec:	fb 2a       	or	r15, r27
     2ee:	c7 01       	movw	r24, r14
     2f0:	b6 01       	movw	r22, r12
     2f2:	df 91       	pop	r29
     2f4:	cf 91       	pop	r28
     2f6:	1f 91       	pop	r17
     2f8:	0f 91       	pop	r16
     2fa:	ff 90       	pop	r15
     2fc:	ef 90       	pop	r14
     2fe:	df 90       	pop	r13
     300:	cf 90       	pop	r12
     302:	08 95       	ret

00000304 <st_clust>:
     304:	cf 92       	push	r12
     306:	df 92       	push	r13
     308:	ef 92       	push	r14
     30a:	ff 92       	push	r15
     30c:	0f 93       	push	r16
     30e:	1f 93       	push	r17
     310:	cf 93       	push	r28
     312:	df 93       	push	r29
     314:	8c 01       	movw	r16, r24
     316:	eb 01       	movw	r28, r22
     318:	69 01       	movw	r12, r18
     31a:	7a 01       	movw	r14, r20
     31c:	b9 01       	movw	r22, r18
     31e:	ce 01       	movw	r24, r28
     320:	4a 96       	adiw	r24, 0x1a	; 26
     322:	0e 94 ed 00 	call	0x1da	; 0x1da <st_word>
     326:	f8 01       	movw	r30, r16
     328:	80 81       	ld	r24, Z
     32a:	83 30       	cpi	r24, 0x03	; 3
     32c:	39 f4       	brne	.+14     	; 0x33c <st_clust+0x38>
     32e:	b7 01       	movw	r22, r14
     330:	88 27       	eor	r24, r24
     332:	99 27       	eor	r25, r25
     334:	ce 01       	movw	r24, r28
     336:	44 96       	adiw	r24, 0x14	; 20
     338:	0e 94 ed 00 	call	0x1da	; 0x1da <st_word>
     33c:	df 91       	pop	r29
     33e:	cf 91       	pop	r28
     340:	1f 91       	pop	r17
     342:	0f 91       	pop	r16
     344:	ff 90       	pop	r15
     346:	ef 90       	pop	r14
     348:	df 90       	pop	r13
     34a:	cf 90       	pop	r12
     34c:	08 95       	ret

0000034e <get_ldnumber>:
     34e:	cf 93       	push	r28
     350:	df 93       	push	r29
     352:	ec 01       	movw	r28, r24
     354:	a8 81       	ld	r26, Y
     356:	b9 81       	ldd	r27, Y+1	; 0x01
     358:	10 97       	sbiw	r26, 0x00	; 0
     35a:	31 f1       	breq	.+76     	; 0x3a8 <get_ldnumber+0x5a>
     35c:	fd 01       	movw	r30, r26
     35e:	9f 01       	movw	r18, r30
     360:	2f 5f       	subi	r18, 0xFF	; 255
     362:	3f 4f       	sbci	r19, 0xFF	; 255
     364:	90 81       	ld	r25, Z
     366:	91 32       	cpi	r25, 0x21	; 33
     368:	18 f0       	brcs	.+6      	; 0x370 <get_ldnumber+0x22>
     36a:	f9 01       	movw	r30, r18
     36c:	9a 33       	cpi	r25, 0x3A	; 58
     36e:	b9 f7       	brne	.-18     	; 0x35e <get_ldnumber+0x10>
     370:	9a 33       	cpi	r25, 0x3A	; 58
     372:	e9 f4       	brne	.+58     	; 0x3ae <get_ldnumber+0x60>
     374:	4c 91       	ld	r20, X
     376:	80 ed       	ldi	r24, 0xD0	; 208
     378:	84 0f       	add	r24, r20
     37a:	8a 30       	cpi	r24, 0x0A	; 10
     37c:	40 f4       	brcc	.+16     	; 0x38e <get_ldnumber+0x40>
     37e:	12 96       	adiw	r26, 0x02	; 2
     380:	2a 17       	cp	r18, r26
     382:	3b 07       	cpc	r19, r27
     384:	39 f4       	brne	.+14     	; 0x394 <get_ldnumber+0x46>
     386:	50 e0       	ldi	r21, 0x00	; 0
     388:	40 53       	subi	r20, 0x30	; 48
     38a:	51 09       	sbc	r21, r1
     38c:	05 c0       	rjmp	.+10     	; 0x398 <get_ldnumber+0x4a>
     38e:	41 e0       	ldi	r20, 0x01	; 1
     390:	50 e0       	ldi	r21, 0x00	; 0
     392:	02 c0       	rjmp	.+4      	; 0x398 <get_ldnumber+0x4a>
     394:	41 e0       	ldi	r20, 0x01	; 1
     396:	50 e0       	ldi	r21, 0x00	; 0
     398:	14 16       	cp	r1, r20
     39a:	15 06       	cpc	r1, r21
     39c:	5c f0       	brlt	.+22     	; 0x3b4 <get_ldnumber+0x66>
     39e:	28 83       	st	Y, r18
     3a0:	39 83       	std	Y+1, r19	; 0x01
     3a2:	84 2f       	mov	r24, r20
     3a4:	95 2f       	mov	r25, r21
     3a6:	08 c0       	rjmp	.+16     	; 0x3b8 <get_ldnumber+0x6a>
     3a8:	8f ef       	ldi	r24, 0xFF	; 255
     3aa:	9f ef       	ldi	r25, 0xFF	; 255
     3ac:	05 c0       	rjmp	.+10     	; 0x3b8 <get_ldnumber+0x6a>
     3ae:	80 e0       	ldi	r24, 0x00	; 0
     3b0:	90 e0       	ldi	r25, 0x00	; 0
     3b2:	02 c0       	rjmp	.+4      	; 0x3b8 <get_ldnumber+0x6a>
     3b4:	8f ef       	ldi	r24, 0xFF	; 255
     3b6:	9f ef       	ldi	r25, 0xFF	; 255
     3b8:	df 91       	pop	r29
     3ba:	cf 91       	pop	r28
     3bc:	08 95       	ret

000003be <validate>:
     3be:	0f 93       	push	r16
     3c0:	1f 93       	push	r17
     3c2:	cf 93       	push	r28
     3c4:	df 93       	push	r29
     3c6:	ec 01       	movw	r28, r24
     3c8:	8b 01       	movw	r16, r22
     3ca:	89 2b       	or	r24, r25
     3cc:	a9 f0       	breq	.+42     	; 0x3f8 <validate+0x3a>
     3ce:	e8 81       	ld	r30, Y
     3d0:	f9 81       	ldd	r31, Y+1	; 0x01
     3d2:	30 97       	sbiw	r30, 0x00	; 0
     3d4:	99 f0       	breq	.+38     	; 0x3fc <validate+0x3e>
     3d6:	80 81       	ld	r24, Z
     3d8:	88 23       	and	r24, r24
     3da:	91 f0       	breq	.+36     	; 0x400 <__LOCK_REGION_LENGTH__>
     3dc:	2a 81       	ldd	r18, Y+2	; 0x02
     3de:	3b 81       	ldd	r19, Y+3	; 0x03
     3e0:	85 81       	ldd	r24, Z+5	; 0x05
     3e2:	96 81       	ldd	r25, Z+6	; 0x06
     3e4:	28 17       	cp	r18, r24
     3e6:	39 07       	cpc	r19, r25
     3e8:	69 f4       	brne	.+26     	; 0x404 <__LOCK_REGION_LENGTH__+0x4>
     3ea:	81 81       	ldd	r24, Z+1	; 0x01
     3ec:	0e 94 a1 00 	call	0x142	; 0x142 <disk_status>
     3f0:	80 ff       	sbrs	r24, 0
     3f2:	0a c0       	rjmp	.+20     	; 0x408 <__LOCK_REGION_LENGTH__+0x8>
     3f4:	89 e0       	ldi	r24, 0x09	; 9
     3f6:	09 c0       	rjmp	.+18     	; 0x40a <__LOCK_REGION_LENGTH__+0xa>
     3f8:	89 e0       	ldi	r24, 0x09	; 9
     3fa:	07 c0       	rjmp	.+14     	; 0x40a <__LOCK_REGION_LENGTH__+0xa>
     3fc:	89 e0       	ldi	r24, 0x09	; 9
     3fe:	05 c0       	rjmp	.+10     	; 0x40a <__LOCK_REGION_LENGTH__+0xa>
     400:	89 e0       	ldi	r24, 0x09	; 9
     402:	03 c0       	rjmp	.+6      	; 0x40a <__LOCK_REGION_LENGTH__+0xa>
     404:	89 e0       	ldi	r24, 0x09	; 9
     406:	01 c0       	rjmp	.+2      	; 0x40a <__LOCK_REGION_LENGTH__+0xa>
     408:	80 e0       	ldi	r24, 0x00	; 0
     40a:	81 11       	cpse	r24, r1
     40c:	03 c0       	rjmp	.+6      	; 0x414 <__LOCK_REGION_LENGTH__+0x14>
     40e:	28 81       	ld	r18, Y
     410:	39 81       	ldd	r19, Y+1	; 0x01
     412:	02 c0       	rjmp	.+4      	; 0x418 <__LOCK_REGION_LENGTH__+0x18>
     414:	20 e0       	ldi	r18, 0x00	; 0
     416:	30 e0       	ldi	r19, 0x00	; 0
     418:	f8 01       	movw	r30, r16
     41a:	20 83       	st	Z, r18
     41c:	31 83       	std	Z+1, r19	; 0x01
     41e:	df 91       	pop	r29
     420:	cf 91       	pop	r28
     422:	1f 91       	pop	r17
     424:	0f 91       	pop	r16
     426:	08 95       	ret

00000428 <sync_window>:
     428:	8f 92       	push	r8
     42a:	9f 92       	push	r9
     42c:	af 92       	push	r10
     42e:	bf 92       	push	r11
     430:	ef 92       	push	r14
     432:	ff 92       	push	r15
     434:	0f 93       	push	r16
     436:	1f 93       	push	r17
     438:	cf 93       	push	r28
     43a:	df 93       	push	r29
     43c:	fc 01       	movw	r30, r24
     43e:	23 81       	ldd	r18, Z+3	; 0x03
     440:	22 23       	and	r18, r18
     442:	d1 f1       	breq	.+116    	; 0x4b8 <sync_window+0x90>
     444:	ec 01       	movw	r28, r24
     446:	7c 01       	movw	r14, r24
     448:	ff e2       	ldi	r31, 0x2F	; 47
     44a:	ef 0e       	add	r14, r31
     44c:	f1 1c       	adc	r15, r1
     44e:	2b a5       	ldd	r18, Y+43	; 0x2b
     450:	3c a5       	ldd	r19, Y+44	; 0x2c
     452:	4d a5       	ldd	r20, Y+45	; 0x2d
     454:	5e a5       	ldd	r21, Y+46	; 0x2e
     456:	01 e0       	ldi	r16, 0x01	; 1
     458:	10 e0       	ldi	r17, 0x00	; 0
     45a:	b7 01       	movw	r22, r14
     45c:	89 81       	ldd	r24, Y+1	; 0x01
     45e:	0e 94 b6 00 	call	0x16c	; 0x16c <disk_write>
     462:	81 11       	cpse	r24, r1
     464:	2b c0       	rjmp	.+86     	; 0x4bc <sync_window+0x94>
     466:	1b 82       	std	Y+3, r1	; 0x03
     468:	0b a5       	ldd	r16, Y+43	; 0x2b
     46a:	1c a5       	ldd	r17, Y+44	; 0x2c
     46c:	2d a5       	ldd	r18, Y+45	; 0x2d
     46e:	3e a5       	ldd	r19, Y+46	; 0x2e
     470:	8f 8d       	ldd	r24, Y+31	; 0x1f
     472:	98 a1       	ldd	r25, Y+32	; 0x20
     474:	a9 a1       	ldd	r26, Y+33	; 0x21
     476:	ba a1       	ldd	r27, Y+34	; 0x22
     478:	48 01       	movw	r8, r16
     47a:	59 01       	movw	r10, r18
     47c:	88 1a       	sub	r8, r24
     47e:	99 0a       	sbc	r9, r25
     480:	aa 0a       	sbc	r10, r26
     482:	bb 0a       	sbc	r11, r27
     484:	8f 89       	ldd	r24, Y+23	; 0x17
     486:	98 8d       	ldd	r25, Y+24	; 0x18
     488:	a9 8d       	ldd	r26, Y+25	; 0x19
     48a:	ba 8d       	ldd	r27, Y+26	; 0x1a
     48c:	88 16       	cp	r8, r24
     48e:	99 06       	cpc	r9, r25
     490:	aa 06       	cpc	r10, r26
     492:	bb 06       	cpc	r11, r27
     494:	a8 f4       	brcc	.+42     	; 0x4c0 <sync_window+0x98>
     496:	6a 81       	ldd	r22, Y+2	; 0x02
     498:	62 30       	cpi	r22, 0x02	; 2
     49a:	a1 f4       	brne	.+40     	; 0x4c4 <sync_window+0x9c>
     49c:	a9 01       	movw	r20, r18
     49e:	98 01       	movw	r18, r16
     4a0:	28 0f       	add	r18, r24
     4a2:	39 1f       	adc	r19, r25
     4a4:	4a 1f       	adc	r20, r26
     4a6:	5b 1f       	adc	r21, r27
     4a8:	01 e0       	ldi	r16, 0x01	; 1
     4aa:	10 e0       	ldi	r17, 0x00	; 0
     4ac:	b7 01       	movw	r22, r14
     4ae:	89 81       	ldd	r24, Y+1	; 0x01
     4b0:	0e 94 b6 00 	call	0x16c	; 0x16c <disk_write>
     4b4:	80 e0       	ldi	r24, 0x00	; 0
     4b6:	07 c0       	rjmp	.+14     	; 0x4c6 <sync_window+0x9e>
     4b8:	80 e0       	ldi	r24, 0x00	; 0
     4ba:	05 c0       	rjmp	.+10     	; 0x4c6 <sync_window+0x9e>
     4bc:	81 e0       	ldi	r24, 0x01	; 1
     4be:	03 c0       	rjmp	.+6      	; 0x4c6 <sync_window+0x9e>
     4c0:	80 e0       	ldi	r24, 0x00	; 0
     4c2:	01 c0       	rjmp	.+2      	; 0x4c6 <sync_window+0x9e>
     4c4:	80 e0       	ldi	r24, 0x00	; 0
     4c6:	df 91       	pop	r29
     4c8:	cf 91       	pop	r28
     4ca:	1f 91       	pop	r17
     4cc:	0f 91       	pop	r16
     4ce:	ff 90       	pop	r15
     4d0:	ef 90       	pop	r14
     4d2:	bf 90       	pop	r11
     4d4:	af 90       	pop	r10
     4d6:	9f 90       	pop	r9
     4d8:	8f 90       	pop	r8
     4da:	08 95       	ret

000004dc <move_window>:
     4dc:	8f 92       	push	r8
     4de:	9f 92       	push	r9
     4e0:	af 92       	push	r10
     4e2:	bf 92       	push	r11
     4e4:	ff 92       	push	r15
     4e6:	0f 93       	push	r16
     4e8:	1f 93       	push	r17
     4ea:	cf 93       	push	r28
     4ec:	df 93       	push	r29
     4ee:	ec 01       	movw	r28, r24
     4f0:	4a 01       	movw	r8, r20
     4f2:	5b 01       	movw	r10, r22
     4f4:	8b a5       	ldd	r24, Y+43	; 0x2b
     4f6:	9c a5       	ldd	r25, Y+44	; 0x2c
     4f8:	ad a5       	ldd	r26, Y+45	; 0x2d
     4fa:	be a5       	ldd	r27, Y+46	; 0x2e
     4fc:	84 17       	cp	r24, r20
     4fe:	95 07       	cpc	r25, r21
     500:	a6 07       	cpc	r26, r22
     502:	b7 07       	cpc	r27, r23
     504:	e9 f0       	breq	.+58     	; 0x540 <move_window+0x64>
     506:	ce 01       	movw	r24, r28
     508:	0e 94 14 02 	call	0x428	; 0x428 <sync_window>
     50c:	f8 2e       	mov	r15, r24
     50e:	81 11       	cpse	r24, r1
     510:	18 c0       	rjmp	.+48     	; 0x542 <move_window+0x66>
     512:	01 e0       	ldi	r16, 0x01	; 1
     514:	10 e0       	ldi	r17, 0x00	; 0
     516:	a5 01       	movw	r20, r10
     518:	94 01       	movw	r18, r8
     51a:	be 01       	movw	r22, r28
     51c:	61 5d       	subi	r22, 0xD1	; 209
     51e:	7f 4f       	sbci	r23, 0xFF	; 255
     520:	89 81       	ldd	r24, Y+1	; 0x01
     522:	0e 94 a9 00 	call	0x152	; 0x152 <disk_read>
     526:	88 23       	and	r24, r24
     528:	31 f0       	breq	.+12     	; 0x536 <move_window+0x5a>
     52a:	ff 24       	eor	r15, r15
     52c:	f3 94       	inc	r15
     52e:	88 24       	eor	r8, r8
     530:	8a 94       	dec	r8
     532:	98 2c       	mov	r9, r8
     534:	54 01       	movw	r10, r8
     536:	8b a6       	std	Y+43, r8	; 0x2b
     538:	9c a6       	std	Y+44, r9	; 0x2c
     53a:	ad a6       	std	Y+45, r10	; 0x2d
     53c:	be a6       	std	Y+46, r11	; 0x2e
     53e:	01 c0       	rjmp	.+2      	; 0x542 <move_window+0x66>
     540:	f1 2c       	mov	r15, r1
     542:	8f 2d       	mov	r24, r15
     544:	df 91       	pop	r29
     546:	cf 91       	pop	r28
     548:	1f 91       	pop	r17
     54a:	0f 91       	pop	r16
     54c:	ff 90       	pop	r15
     54e:	bf 90       	pop	r11
     550:	af 90       	pop	r10
     552:	9f 90       	pop	r9
     554:	8f 90       	pop	r8
     556:	08 95       	ret

00000558 <check_fs>:
     558:	ef 92       	push	r14
     55a:	ff 92       	push	r15
     55c:	0f 93       	push	r16
     55e:	1f 93       	push	r17
     560:	cf 93       	push	r28
     562:	df 93       	push	r29
     564:	ec 01       	movw	r28, r24
     566:	1b 82       	std	Y+3, r1	; 0x03
     568:	8f ef       	ldi	r24, 0xFF	; 255
     56a:	9f ef       	ldi	r25, 0xFF	; 255
     56c:	dc 01       	movw	r26, r24
     56e:	8b a7       	std	Y+43, r24	; 0x2b
     570:	9c a7       	std	Y+44, r25	; 0x2c
     572:	ad a7       	std	Y+45, r26	; 0x2d
     574:	be a7       	std	Y+46, r27	; 0x2e
     576:	ce 01       	movw	r24, r28
     578:	0e 94 6e 02 	call	0x4dc	; 0x4dc <move_window>
     57c:	81 11       	cpse	r24, r1
     57e:	71 c0       	rjmp	.+226    	; 0x662 <check_fs+0x10a>
     580:	ce 01       	movw	r24, r28
     582:	83 5d       	subi	r24, 0xD3	; 211
     584:	9d 4f       	sbci	r25, 0xFD	; 253
     586:	0e 94 c8 00 	call	0x190	; 0x190 <ld_word>
     58a:	7c 01       	movw	r14, r24
     58c:	8f a5       	ldd	r24, Y+47	; 0x2f
     58e:	8b 3e       	cpi	r24, 0xEB	; 235
     590:	29 f0       	breq	.+10     	; 0x59c <check_fs+0x44>
     592:	89 3e       	cpi	r24, 0xE9	; 233
     594:	19 f0       	breq	.+6      	; 0x59c <check_fs+0x44>
     596:	88 3e       	cpi	r24, 0xE8	; 232
     598:	09 f0       	breq	.+2      	; 0x59c <check_fs+0x44>
     59a:	5b c0       	rjmp	.+182    	; 0x652 <check_fs+0xfa>
     59c:	25 e5       	ldi	r18, 0x55	; 85
     59e:	e2 16       	cp	r14, r18
     5a0:	2a ea       	ldi	r18, 0xAA	; 170
     5a2:	f2 06       	cpc	r15, r18
     5a4:	61 f4       	brne	.+24     	; 0x5be <check_fs+0x66>
     5a6:	48 e0       	ldi	r20, 0x08	; 8
     5a8:	50 e0       	ldi	r21, 0x00	; 0
     5aa:	67 e0       	ldi	r22, 0x07	; 7
     5ac:	70 e4       	ldi	r23, 0x40	; 64
     5ae:	ce 01       	movw	r24, r28
     5b0:	8f 57       	subi	r24, 0x7F	; 127
     5b2:	9f 4f       	sbci	r25, 0xFF	; 255
     5b4:	0e 94 1e 19 	call	0x323c	; 0x323c <memcmp>
     5b8:	89 2b       	or	r24, r25
     5ba:	09 f4       	brne	.+2      	; 0x5be <check_fs+0x66>
     5bc:	55 c0       	rjmp	.+170    	; 0x668 <check_fs+0x110>
     5be:	ce 01       	movw	r24, r28
     5c0:	ca 96       	adiw	r24, 0x3a	; 58
     5c2:	0e 94 c8 00 	call	0x190	; 0x190 <ld_word>
     5c6:	2c ad       	ldd	r18, Y+60	; 0x3c
     5c8:	8c 01       	movw	r16, r24
     5ca:	01 50       	subi	r16, 0x01	; 1
     5cc:	11 09       	sbc	r17, r1
     5ce:	08 23       	and	r16, r24
     5d0:	19 23       	and	r17, r25
     5d2:	01 15       	cp	r16, r1
     5d4:	11 05       	cpc	r17, r1
     5d6:	e9 f5       	brne	.+122    	; 0x652 <check_fs+0xfa>
     5d8:	81 15       	cp	r24, r1
     5da:	32 e0       	ldi	r19, 0x02	; 2
     5dc:	93 07       	cpc	r25, r19
     5de:	c8 f1       	brcs	.+114    	; 0x652 <check_fs+0xfa>
     5e0:	81 30       	cpi	r24, 0x01	; 1
     5e2:	92 40       	sbci	r25, 0x02	; 2
     5e4:	b0 f5       	brcc	.+108    	; 0x652 <check_fs+0xfa>
     5e6:	22 23       	and	r18, r18
     5e8:	a1 f1       	breq	.+104    	; 0x652 <check_fs+0xfa>
     5ea:	82 2f       	mov	r24, r18
     5ec:	90 e0       	ldi	r25, 0x00	; 0
     5ee:	9c 01       	movw	r18, r24
     5f0:	21 50       	subi	r18, 0x01	; 1
     5f2:	31 09       	sbc	r19, r1
     5f4:	82 23       	and	r24, r18
     5f6:	93 23       	and	r25, r19
     5f8:	89 2b       	or	r24, r25
     5fa:	59 f5       	brne	.+86     	; 0x652 <check_fs+0xfa>
     5fc:	ce 01       	movw	r24, r28
     5fe:	cd 96       	adiw	r24, 0x3d	; 61
     600:	0e 94 c8 00 	call	0x190	; 0x190 <ld_word>
     604:	89 2b       	or	r24, r25
     606:	29 f1       	breq	.+74     	; 0x652 <check_fs+0xfa>
     608:	8f ad       	ldd	r24, Y+63	; 0x3f
     60a:	90 e0       	ldi	r25, 0x00	; 0
     60c:	01 97       	sbiw	r24, 0x01	; 1
     60e:	02 97       	sbiw	r24, 0x02	; 2
     610:	00 f5       	brcc	.+64     	; 0x652 <check_fs+0xfa>
     612:	ce 01       	movw	r24, r28
     614:	80 5c       	subi	r24, 0xC0	; 192
     616:	9f 4f       	sbci	r25, 0xFF	; 255
     618:	0e 94 c8 00 	call	0x190	; 0x190 <ld_word>
     61c:	89 2b       	or	r24, r25
     61e:	c9 f0       	breq	.+50     	; 0x652 <check_fs+0xfa>
     620:	ce 01       	movw	r24, r28
     622:	8e 5b       	subi	r24, 0xBE	; 190
     624:	9f 4f       	sbci	r25, 0xFF	; 255
     626:	0e 94 c8 00 	call	0x190	; 0x190 <ld_word>
     62a:	80 38       	cpi	r24, 0x80	; 128
     62c:	91 05       	cpc	r25, r1
     62e:	50 f4       	brcc	.+20     	; 0x644 <check_fs+0xec>
     630:	ce 01       	movw	r24, r28
     632:	81 5b       	subi	r24, 0xB1	; 177
     634:	9f 4f       	sbci	r25, 0xFF	; 255
     636:	0e 94 d2 00 	call	0x1a4	; 0x1a4 <ld_dword>
     63a:	61 15       	cp	r22, r1
     63c:	71 05       	cpc	r23, r1
     63e:	81 40       	sbci	r24, 0x01	; 1
     640:	91 05       	cpc	r25, r1
     642:	38 f0       	brcs	.+14     	; 0x652 <check_fs+0xfa>
     644:	ce 01       	movw	r24, r28
     646:	8b 5b       	subi	r24, 0xBB	; 187
     648:	9f 4f       	sbci	r25, 0xFF	; 255
     64a:	0e 94 c8 00 	call	0x190	; 0x190 <ld_word>
     64e:	89 2b       	or	r24, r25
     650:	81 f4       	brne	.+32     	; 0x672 <check_fs+0x11a>
     652:	35 e5       	ldi	r19, 0x55	; 85
     654:	e3 16       	cp	r14, r19
     656:	3a ea       	ldi	r19, 0xAA	; 170
     658:	f3 06       	cpc	r15, r19
     65a:	49 f4       	brne	.+18     	; 0x66e <check_fs+0x116>
     65c:	02 e0       	ldi	r16, 0x02	; 2
     65e:	10 e0       	ldi	r17, 0x00	; 0
     660:	08 c0       	rjmp	.+16     	; 0x672 <check_fs+0x11a>
     662:	04 e0       	ldi	r16, 0x04	; 4
     664:	10 e0       	ldi	r17, 0x00	; 0
     666:	05 c0       	rjmp	.+10     	; 0x672 <check_fs+0x11a>
     668:	00 e0       	ldi	r16, 0x00	; 0
     66a:	10 e0       	ldi	r17, 0x00	; 0
     66c:	02 c0       	rjmp	.+4      	; 0x672 <check_fs+0x11a>
     66e:	03 e0       	ldi	r16, 0x03	; 3
     670:	10 e0       	ldi	r17, 0x00	; 0
     672:	c8 01       	movw	r24, r16
     674:	df 91       	pop	r29
     676:	cf 91       	pop	r28
     678:	1f 91       	pop	r17
     67a:	0f 91       	pop	r16
     67c:	ff 90       	pop	r15
     67e:	ef 90       	pop	r14
     680:	08 95       	ret

00000682 <find_volume>:
     682:	cf 92       	push	r12
     684:	df 92       	push	r13
     686:	ef 92       	push	r14
     688:	ff 92       	push	r15
     68a:	0f 93       	push	r16
     68c:	1f 93       	push	r17
     68e:	cf 93       	push	r28
     690:	df 93       	push	r29
     692:	cd b7       	in	r28, 0x3d	; 61
     694:	de b7       	in	r29, 0x3e	; 62
     696:	60 97       	sbiw	r28, 0x10	; 16
     698:	cd bf       	out	0x3d, r28	; 61
     69a:	de bf       	out	0x3e, r29	; 62
     69c:	6c 01       	movw	r12, r24
     69e:	7b 01       	movw	r14, r22
     6a0:	40 e0       	ldi	r20, 0x00	; 0
     6a2:	50 e0       	ldi	r21, 0x00	; 0
     6a4:	ba 01       	movw	r22, r20
     6a6:	0e 94 ac 02 	call	0x558	; 0x558 <check_fs>
     6aa:	82 30       	cpi	r24, 0x02	; 2
     6ac:	91 05       	cpc	r25, r1
     6ae:	59 f1       	breq	.+86     	; 0x706 <find_volume+0x84>
     6b0:	08 f0       	brcs	.+2      	; 0x6b4 <find_volume+0x32>
     6b2:	5c c0       	rjmp	.+184    	; 0x76c <find_volume+0xea>
     6b4:	e1 14       	cp	r14, r1
     6b6:	f1 04       	cpc	r15, r1
     6b8:	09 f4       	brne	.+2      	; 0x6bc <find_volume+0x3a>
     6ba:	58 c0       	rjmp	.+176    	; 0x76c <find_volume+0xea>
     6bc:	00 e0       	ldi	r16, 0x00	; 0
     6be:	10 e0       	ldi	r17, 0x00	; 0
     6c0:	24 c0       	rjmp	.+72     	; 0x70a <find_volume+0x88>
     6c2:	c8 01       	movw	r24, r16
     6c4:	82 95       	swap	r24
     6c6:	92 95       	swap	r25
     6c8:	90 7f       	andi	r25, 0xF0	; 240
     6ca:	98 27       	eor	r25, r24
     6cc:	80 7f       	andi	r24, 0xF0	; 240
     6ce:	98 27       	eor	r25, r24
     6d0:	8a 53       	subi	r24, 0x3A	; 58
     6d2:	9e 4f       	sbci	r25, 0xFE	; 254
     6d4:	96 01       	movw	r18, r12
     6d6:	21 5d       	subi	r18, 0xD1	; 209
     6d8:	3f 4f       	sbci	r19, 0xFF	; 255
     6da:	82 0f       	add	r24, r18
     6dc:	93 1f       	adc	r25, r19
     6de:	0e 94 d2 00 	call	0x1a4	; 0x1a4 <ld_dword>
     6e2:	f8 01       	movw	r30, r16
     6e4:	ee 0f       	add	r30, r30
     6e6:	ff 1f       	adc	r31, r31
     6e8:	ee 0f       	add	r30, r30
     6ea:	ff 1f       	adc	r31, r31
     6ec:	21 e0       	ldi	r18, 0x01	; 1
     6ee:	30 e0       	ldi	r19, 0x00	; 0
     6f0:	2c 0f       	add	r18, r28
     6f2:	3d 1f       	adc	r19, r29
     6f4:	e2 0f       	add	r30, r18
     6f6:	f3 1f       	adc	r31, r19
     6f8:	60 83       	st	Z, r22
     6fa:	71 83       	std	Z+1, r23	; 0x01
     6fc:	82 83       	std	Z+2, r24	; 0x02
     6fe:	93 83       	std	Z+3, r25	; 0x03
     700:	0f 5f       	subi	r16, 0xFF	; 255
     702:	1f 4f       	sbci	r17, 0xFF	; 255
     704:	02 c0       	rjmp	.+4      	; 0x70a <find_volume+0x88>
     706:	00 e0       	ldi	r16, 0x00	; 0
     708:	10 e0       	ldi	r17, 0x00	; 0
     70a:	04 30       	cpi	r16, 0x04	; 4
     70c:	11 05       	cpc	r17, r1
     70e:	c8 f2       	brcs	.-78     	; 0x6c2 <find_volume+0x40>
     710:	e1 14       	cp	r14, r1
     712:	f1 04       	cpc	r15, r1
     714:	21 f0       	breq	.+8      	; 0x71e <find_volume+0x9c>
     716:	87 01       	movw	r16, r14
     718:	01 50       	subi	r16, 0x01	; 1
     71a:	11 09       	sbc	r17, r1
     71c:	02 c0       	rjmp	.+4      	; 0x722 <find_volume+0xa0>
     71e:	00 e0       	ldi	r16, 0x00	; 0
     720:	10 e0       	ldi	r17, 0x00	; 0
     722:	f8 01       	movw	r30, r16
     724:	ee 0f       	add	r30, r30
     726:	ff 1f       	adc	r31, r31
     728:	ee 0f       	add	r30, r30
     72a:	ff 1f       	adc	r31, r31
     72c:	81 e0       	ldi	r24, 0x01	; 1
     72e:	90 e0       	ldi	r25, 0x00	; 0
     730:	8c 0f       	add	r24, r28
     732:	9d 1f       	adc	r25, r29
     734:	e8 0f       	add	r30, r24
     736:	f9 1f       	adc	r31, r25
     738:	40 81       	ld	r20, Z
     73a:	51 81       	ldd	r21, Z+1	; 0x01
     73c:	62 81       	ldd	r22, Z+2	; 0x02
     73e:	73 81       	ldd	r23, Z+3	; 0x03
     740:	41 15       	cp	r20, r1
     742:	51 05       	cpc	r21, r1
     744:	61 05       	cpc	r22, r1
     746:	71 05       	cpc	r23, r1
     748:	21 f0       	breq	.+8      	; 0x752 <find_volume+0xd0>
     74a:	c6 01       	movw	r24, r12
     74c:	0e 94 ac 02 	call	0x558	; 0x558 <check_fs>
     750:	02 c0       	rjmp	.+4      	; 0x756 <find_volume+0xd4>
     752:	83 e0       	ldi	r24, 0x03	; 3
     754:	90 e0       	ldi	r25, 0x00	; 0
     756:	e1 14       	cp	r14, r1
     758:	f1 04       	cpc	r15, r1
     75a:	41 f4       	brne	.+16     	; 0x76c <find_volume+0xea>
     75c:	82 30       	cpi	r24, 0x02	; 2
     75e:	91 05       	cpc	r25, r1
     760:	28 f0       	brcs	.+10     	; 0x76c <find_volume+0xea>
     762:	0f 5f       	subi	r16, 0xFF	; 255
     764:	1f 4f       	sbci	r17, 0xFF	; 255
     766:	04 30       	cpi	r16, 0x04	; 4
     768:	11 05       	cpc	r17, r1
     76a:	d8 f2       	brcs	.-74     	; 0x722 <find_volume+0xa0>
     76c:	60 96       	adiw	r28, 0x10	; 16
     76e:	cd bf       	out	0x3d, r28	; 61
     770:	de bf       	out	0x3e, r29	; 62
     772:	df 91       	pop	r29
     774:	cf 91       	pop	r28
     776:	1f 91       	pop	r17
     778:	0f 91       	pop	r16
     77a:	ff 90       	pop	r15
     77c:	ef 90       	pop	r14
     77e:	df 90       	pop	r13
     780:	cf 90       	pop	r12
     782:	08 95       	ret

00000784 <mount_volume>:
     784:	2f 92       	push	r2
     786:	3f 92       	push	r3
     788:	4f 92       	push	r4
     78a:	5f 92       	push	r5
     78c:	6f 92       	push	r6
     78e:	7f 92       	push	r7
     790:	8f 92       	push	r8
     792:	9f 92       	push	r9
     794:	af 92       	push	r10
     796:	bf 92       	push	r11
     798:	cf 92       	push	r12
     79a:	df 92       	push	r13
     79c:	ef 92       	push	r14
     79e:	ff 92       	push	r15
     7a0:	0f 93       	push	r16
     7a2:	1f 93       	push	r17
     7a4:	cf 93       	push	r28
     7a6:	df 93       	push	r29
     7a8:	cd b7       	in	r28, 0x3d	; 61
     7aa:	de b7       	in	r29, 0x3e	; 62
     7ac:	2e 97       	sbiw	r28, 0x0e	; 14
     7ae:	cd bf       	out	0x3d, r28	; 61
     7b0:	de bf       	out	0x3e, r29	; 62
     7b2:	7b 01       	movw	r14, r22
     7b4:	d4 2e       	mov	r13, r20
     7b6:	db 01       	movw	r26, r22
     7b8:	1d 92       	st	X+, r1
     7ba:	1c 92       	st	X, r1
     7bc:	0e 94 a7 01 	call	0x34e	; 0x34e <get_ldnumber>
     7c0:	8c 01       	movw	r16, r24
     7c2:	99 23       	and	r25, r25
     7c4:	0c f4       	brge	.+2      	; 0x7c8 <mount_volume+0x44>
     7c6:	1c c2       	rjmp	.+1080   	; 0xc00 <mount_volume+0x47c>
     7c8:	fc 01       	movw	r30, r24
     7ca:	ee 0f       	add	r30, r30
     7cc:	ff 1f       	adc	r31, r31
     7ce:	ee 5a       	subi	r30, 0xAE	; 174
     7d0:	ff 4b       	sbci	r31, 0xBF	; 191
     7d2:	20 81       	ld	r18, Z
     7d4:	31 81       	ldd	r19, Z+1	; 0x01
     7d6:	2d 87       	std	Y+13, r18	; 0x0d
     7d8:	3e 87       	std	Y+14, r19	; 0x0e
     7da:	21 15       	cp	r18, r1
     7dc:	31 05       	cpc	r19, r1
     7de:	09 f4       	brne	.+2      	; 0x7e2 <mount_volume+0x5e>
     7e0:	11 c2       	rjmp	.+1058   	; 0xc04 <mount_volume+0x480>
     7e2:	d7 01       	movw	r26, r14
     7e4:	2d 93       	st	X+, r18
     7e6:	3c 93       	st	X, r19
     7e8:	bd 2d       	mov	r27, r13
     7ea:	be 7f       	andi	r27, 0xFE	; 254
     7ec:	db 2e       	mov	r13, r27
     7ee:	f9 01       	movw	r30, r18
     7f0:	80 81       	ld	r24, Z
     7f2:	88 23       	and	r24, r24
     7f4:	61 f0       	breq	.+24     	; 0x80e <mount_volume+0x8a>
     7f6:	81 81       	ldd	r24, Z+1	; 0x01
     7f8:	0e 94 a1 00 	call	0x142	; 0x142 <disk_status>
     7fc:	80 fd       	sbrc	r24, 0
     7fe:	07 c0       	rjmp	.+14     	; 0x80e <mount_volume+0x8a>
     800:	dd 20       	and	r13, r13
     802:	09 f4       	brne	.+2      	; 0x806 <mount_volume+0x82>
     804:	01 c2       	rjmp	.+1026   	; 0xc08 <mount_volume+0x484>
     806:	82 fd       	sbrc	r24, 2
     808:	01 c2       	rjmp	.+1026   	; 0xc0c <mount_volume+0x488>
     80a:	80 e0       	ldi	r24, 0x00	; 0
     80c:	22 c2       	rjmp	.+1092   	; 0xc52 <mount_volume+0x4ce>
     80e:	ad 85       	ldd	r26, Y+13	; 0x0d
     810:	be 85       	ldd	r27, Y+14	; 0x0e
     812:	1c 92       	st	X, r1
     814:	11 96       	adiw	r26, 0x01	; 1
     816:	0c 93       	st	X, r16
     818:	80 2f       	mov	r24, r16
     81a:	0e 94 a6 00 	call	0x14c	; 0x14c <disk_initialize>
     81e:	80 fd       	sbrc	r24, 0
     820:	f7 c1       	rjmp	.+1006   	; 0xc10 <mount_volume+0x48c>
     822:	dd 20       	and	r13, r13
     824:	11 f0       	breq	.+4      	; 0x82a <mount_volume+0xa6>
     826:	82 fd       	sbrc	r24, 2
     828:	f5 c1       	rjmp	.+1002   	; 0xc14 <mount_volume+0x490>
     82a:	60 e0       	ldi	r22, 0x00	; 0
     82c:	70 e0       	ldi	r23, 0x00	; 0
     82e:	8d 85       	ldd	r24, Y+13	; 0x0d
     830:	9e 85       	ldd	r25, Y+14	; 0x0e
     832:	0e 94 41 03 	call	0x682	; 0x682 <find_volume>
     836:	84 30       	cpi	r24, 0x04	; 4
     838:	91 05       	cpc	r25, r1
     83a:	09 f4       	brne	.+2      	; 0x83e <mount_volume+0xba>
     83c:	ed c1       	rjmp	.+986    	; 0xc18 <mount_volume+0x494>
     83e:	02 97       	sbiw	r24, 0x02	; 2
     840:	08 f0       	brcs	.+2      	; 0x844 <mount_volume+0xc0>
     842:	ec c1       	rjmp	.+984    	; 0xc1c <mount_volume+0x498>
     844:	ed 85       	ldd	r30, Y+13	; 0x0d
     846:	fe 85       	ldd	r31, Y+14	; 0x0e
     848:	43 a4       	ldd	r4, Z+43	; 0x2b
     84a:	54 a4       	ldd	r5, Z+44	; 0x2c
     84c:	65 a4       	ldd	r6, Z+45	; 0x2d
     84e:	76 a4       	ldd	r7, Z+46	; 0x2e
     850:	cf 01       	movw	r24, r30
     852:	ca 96       	adiw	r24, 0x3a	; 58
     854:	0e 94 c8 00 	call	0x190	; 0x190 <ld_word>
     858:	81 15       	cp	r24, r1
     85a:	92 40       	sbci	r25, 0x02	; 2
     85c:	09 f0       	breq	.+2      	; 0x860 <mount_volume+0xdc>
     85e:	e0 c1       	rjmp	.+960    	; 0xc20 <mount_volume+0x49c>
     860:	8d 85       	ldd	r24, Y+13	; 0x0d
     862:	9e 85       	ldd	r25, Y+14	; 0x0e
     864:	8b 5b       	subi	r24, 0xBB	; 187
     866:	9f 4f       	sbci	r25, 0xFF	; 255
     868:	0e 94 c8 00 	call	0x190	; 0x190 <ld_word>
     86c:	4c 01       	movw	r8, r24
     86e:	a1 2c       	mov	r10, r1
     870:	b1 2c       	mov	r11, r1
     872:	81 14       	cp	r8, r1
     874:	91 04       	cpc	r9, r1
     876:	a1 04       	cpc	r10, r1
     878:	b1 04       	cpc	r11, r1
     87a:	41 f4       	brne	.+16     	; 0x88c <mount_volume+0x108>
     87c:	8d 85       	ldd	r24, Y+13	; 0x0d
     87e:	9e 85       	ldd	r25, Y+14	; 0x0e
     880:	8d 5a       	subi	r24, 0xAD	; 173
     882:	9f 4f       	sbci	r25, 0xFF	; 255
     884:	0e 94 d2 00 	call	0x1a4	; 0x1a4 <ld_dword>
     888:	4b 01       	movw	r8, r22
     88a:	5c 01       	movw	r10, r24
     88c:	ad 85       	ldd	r26, Y+13	; 0x0d
     88e:	be 85       	ldd	r27, Y+14	; 0x0e
     890:	57 96       	adiw	r26, 0x17	; 23
     892:	8d 92       	st	X+, r8
     894:	9d 92       	st	X+, r9
     896:	ad 92       	st	X+, r10
     898:	bc 92       	st	X, r11
     89a:	5a 97       	sbiw	r26, 0x1a	; 26
     89c:	fd 01       	movw	r30, r26
     89e:	a7 ad       	ldd	r26, Z+63	; 0x3f
     8a0:	a2 83       	std	Z+2, r26	; 0x02
     8a2:	8f ef       	ldi	r24, 0xFF	; 255
     8a4:	8a 0f       	add	r24, r26
     8a6:	82 30       	cpi	r24, 0x02	; 2
     8a8:	08 f0       	brcs	.+2      	; 0x8ac <mount_volume+0x128>
     8aa:	bc c1       	rjmp	.+888    	; 0xc24 <mount_volume+0x4a0>
     8ac:	b0 e0       	ldi	r27, 0x00	; 0
     8ae:	a5 01       	movw	r20, r10
     8b0:	94 01       	movw	r18, r8
     8b2:	0e 94 f2 17 	call	0x2fe4	; 0x2fe4 <__muluhisi3>
     8b6:	6d 83       	std	Y+5, r22	; 0x05
     8b8:	7e 83       	std	Y+6, r23	; 0x06
     8ba:	8f 83       	std	Y+7, r24	; 0x07
     8bc:	98 87       	std	Y+8, r25	; 0x08
     8be:	04 ad       	ldd	r16, Z+60	; 0x3c
     8c0:	10 e0       	ldi	r17, 0x00	; 0
     8c2:	01 87       	std	Z+9, r16	; 0x09
     8c4:	12 87       	std	Z+10, r17	; 0x0a
     8c6:	01 15       	cp	r16, r1
     8c8:	11 05       	cpc	r17, r1
     8ca:	09 f4       	brne	.+2      	; 0x8ce <mount_volume+0x14a>
     8cc:	ad c1       	rjmp	.+858    	; 0xc28 <mount_volume+0x4a4>
     8ce:	c8 01       	movw	r24, r16
     8d0:	01 97       	sbiw	r24, 0x01	; 1
     8d2:	80 23       	and	r24, r16
     8d4:	91 23       	and	r25, r17
     8d6:	89 2b       	or	r24, r25
     8d8:	09 f0       	breq	.+2      	; 0x8dc <mount_volume+0x158>
     8da:	a8 c1       	rjmp	.+848    	; 0xc2c <mount_volume+0x4a8>
     8dc:	cf 01       	movw	r24, r30
     8de:	80 5c       	subi	r24, 0xC0	; 192
     8e0:	9f 4f       	sbci	r25, 0xFF	; 255
     8e2:	0e 94 c8 00 	call	0x190	; 0x190 <ld_word>
     8e6:	1c 01       	movw	r2, r24
     8e8:	ad 85       	ldd	r26, Y+13	; 0x0d
     8ea:	be 85       	ldd	r27, Y+14	; 0x0e
     8ec:	17 96       	adiw	r26, 0x07	; 7
     8ee:	8d 93       	st	X+, r24
     8f0:	9c 93       	st	X, r25
     8f2:	18 97       	sbiw	r26, 0x08	; 8
     8f4:	8f 70       	andi	r24, 0x0F	; 15
     8f6:	99 27       	eor	r25, r25
     8f8:	89 2b       	or	r24, r25
     8fa:	09 f0       	breq	.+2      	; 0x8fe <mount_volume+0x17a>
     8fc:	99 c1       	rjmp	.+818    	; 0xc30 <mount_volume+0x4ac>
     8fe:	cd 01       	movw	r24, r26
     900:	8e 5b       	subi	r24, 0xBE	; 190
     902:	9f 4f       	sbci	r25, 0xFF	; 255
     904:	0e 94 c8 00 	call	0x190	; 0x190 <ld_word>
     908:	6c 01       	movw	r12, r24
     90a:	e1 2c       	mov	r14, r1
     90c:	f1 2c       	mov	r15, r1
     90e:	c1 14       	cp	r12, r1
     910:	d1 04       	cpc	r13, r1
     912:	e1 04       	cpc	r14, r1
     914:	f1 04       	cpc	r15, r1
     916:	41 f4       	brne	.+16     	; 0x928 <mount_volume+0x1a4>
     918:	8d 85       	ldd	r24, Y+13	; 0x0d
     91a:	9e 85       	ldd	r25, Y+14	; 0x0e
     91c:	81 5b       	subi	r24, 0xB1	; 177
     91e:	9f 4f       	sbci	r25, 0xFF	; 255
     920:	0e 94 d2 00 	call	0x1a4	; 0x1a4 <ld_dword>
     924:	6b 01       	movw	r12, r22
     926:	7c 01       	movw	r14, r24
     928:	8d 85       	ldd	r24, Y+13	; 0x0d
     92a:	9e 85       	ldd	r25, Y+14	; 0x0e
     92c:	cd 96       	adiw	r24, 0x3d	; 61
     92e:	0e 94 c8 00 	call	0x190	; 0x190 <ld_word>
     932:	00 97       	sbiw	r24, 0x00	; 0
     934:	09 f4       	brne	.+2      	; 0x938 <mount_volume+0x1b4>
     936:	7e c1       	rjmp	.+764    	; 0xc34 <mount_volume+0x4b0>
     938:	9c 01       	movw	r18, r24
     93a:	40 e0       	ldi	r20, 0x00	; 0
     93c:	50 e0       	ldi	r21, 0x00	; 0
     93e:	29 87       	std	Y+9, r18	; 0x09
     940:	3a 87       	std	Y+10, r19	; 0x0a
     942:	4b 87       	std	Y+11, r20	; 0x0b
     944:	5c 87       	std	Y+12, r21	; 0x0c
     946:	8d 81       	ldd	r24, Y+5	; 0x05
     948:	9e 81       	ldd	r25, Y+6	; 0x06
     94a:	af 81       	ldd	r26, Y+7	; 0x07
     94c:	b8 85       	ldd	r27, Y+8	; 0x08
     94e:	82 0f       	add	r24, r18
     950:	93 1f       	adc	r25, r19
     952:	a4 1f       	adc	r26, r20
     954:	b5 1f       	adc	r27, r21
     956:	91 01       	movw	r18, r2
     958:	32 95       	swap	r19
     95a:	22 95       	swap	r18
     95c:	2f 70       	andi	r18, 0x0F	; 15
     95e:	23 27       	eor	r18, r19
     960:	3f 70       	andi	r19, 0x0F	; 15
     962:	23 27       	eor	r18, r19
     964:	ac 01       	movw	r20, r24
     966:	bd 01       	movw	r22, r26
     968:	42 0f       	add	r20, r18
     96a:	53 1f       	adc	r21, r19
     96c:	61 1d       	adc	r22, r1
     96e:	71 1d       	adc	r23, r1
     970:	49 83       	std	Y+1, r20	; 0x01
     972:	5a 83       	std	Y+2, r21	; 0x02
     974:	6b 83       	std	Y+3, r22	; 0x03
     976:	7c 83       	std	Y+4, r23	; 0x04
     978:	c4 16       	cp	r12, r20
     97a:	d5 06       	cpc	r13, r21
     97c:	e6 06       	cpc	r14, r22
     97e:	f7 06       	cpc	r15, r23
     980:	08 f4       	brcc	.+2      	; 0x984 <mount_volume+0x200>
     982:	5a c1       	rjmp	.+692    	; 0xc38 <mount_volume+0x4b4>
     984:	c7 01       	movw	r24, r14
     986:	b6 01       	movw	r22, r12
     988:	29 81       	ldd	r18, Y+1	; 0x01
     98a:	3a 81       	ldd	r19, Y+2	; 0x02
     98c:	4b 81       	ldd	r20, Y+3	; 0x03
     98e:	5c 81       	ldd	r21, Y+4	; 0x04
     990:	62 1b       	sub	r22, r18
     992:	73 0b       	sbc	r23, r19
     994:	84 0b       	sbc	r24, r20
     996:	95 0b       	sbc	r25, r21
     998:	98 01       	movw	r18, r16
     99a:	40 e0       	ldi	r20, 0x00	; 0
     99c:	50 e0       	ldi	r21, 0x00	; 0
     99e:	0e 94 c1 17 	call	0x2f82	; 0x2f82 <__udivmodsi4>
     9a2:	da 01       	movw	r26, r20
     9a4:	c9 01       	movw	r24, r18
     9a6:	21 15       	cp	r18, r1
     9a8:	31 05       	cpc	r19, r1
     9aa:	41 05       	cpc	r20, r1
     9ac:	51 05       	cpc	r21, r1
     9ae:	09 f4       	brne	.+2      	; 0x9b2 <mount_volume+0x22e>
     9b0:	45 c1       	rjmp	.+650    	; 0xc3c <mount_volume+0x4b8>
     9b2:	26 3f       	cpi	r18, 0xF6	; 246
     9b4:	6f ef       	ldi	r22, 0xFF	; 255
     9b6:	36 07       	cpc	r19, r22
     9b8:	46 07       	cpc	r20, r22
     9ba:	6f e0       	ldi	r22, 0x0F	; 15
     9bc:	56 07       	cpc	r21, r22
     9be:	18 f0       	brcs	.+6      	; 0x9c6 <mount_volume+0x242>
     9c0:	00 e0       	ldi	r16, 0x00	; 0
     9c2:	10 e0       	ldi	r17, 0x00	; 0
     9c4:	02 c0       	rjmp	.+4      	; 0x9ca <mount_volume+0x246>
     9c6:	03 e0       	ldi	r16, 0x03	; 3
     9c8:	10 e0       	ldi	r17, 0x00	; 0
     9ca:	86 3f       	cpi	r24, 0xF6	; 246
     9cc:	7f ef       	ldi	r23, 0xFF	; 255
     9ce:	97 07       	cpc	r25, r23
     9d0:	a1 05       	cpc	r26, r1
     9d2:	b1 05       	cpc	r27, r1
     9d4:	10 f4       	brcc	.+4      	; 0x9da <mount_volume+0x256>
     9d6:	02 e0       	ldi	r16, 0x02	; 2
     9d8:	10 e0       	ldi	r17, 0x00	; 0
     9da:	86 3f       	cpi	r24, 0xF6	; 246
     9dc:	9f 40       	sbci	r25, 0x0F	; 15
     9de:	a1 05       	cpc	r26, r1
     9e0:	b1 05       	cpc	r27, r1
     9e2:	10 f4       	brcc	.+4      	; 0x9e8 <mount_volume+0x264>
     9e4:	01 e0       	ldi	r16, 0x01	; 1
     9e6:	10 e0       	ldi	r17, 0x00	; 0
     9e8:	01 15       	cp	r16, r1
     9ea:	11 05       	cpc	r17, r1
     9ec:	09 f4       	brne	.+2      	; 0x9f0 <mount_volume+0x26c>
     9ee:	28 c1       	rjmp	.+592    	; 0xc40 <mount_volume+0x4bc>
     9f0:	69 01       	movw	r12, r18
     9f2:	7a 01       	movw	r14, r20
     9f4:	f2 e0       	ldi	r31, 0x02	; 2
     9f6:	cf 0e       	add	r12, r31
     9f8:	d1 1c       	adc	r13, r1
     9fa:	e1 1c       	adc	r14, r1
     9fc:	f1 1c       	adc	r15, r1
     9fe:	ad 85       	ldd	r26, Y+13	; 0x0d
     a00:	be 85       	ldd	r27, Y+14	; 0x0e
     a02:	53 96       	adiw	r26, 0x13	; 19
     a04:	cd 92       	st	X+, r12
     a06:	dd 92       	st	X+, r13
     a08:	ed 92       	st	X+, r14
     a0a:	fc 92       	st	X, r15
     a0c:	56 97       	sbiw	r26, 0x16	; 22
     a0e:	fd 01       	movw	r30, r26
     a10:	43 8e       	std	Z+27, r4	; 0x1b
     a12:	54 8e       	std	Z+28, r5	; 0x1c
     a14:	65 8e       	std	Z+29, r6	; 0x1d
     a16:	76 8e       	std	Z+30, r7	; 0x1e
     a18:	89 85       	ldd	r24, Y+9	; 0x09
     a1a:	9a 85       	ldd	r25, Y+10	; 0x0a
     a1c:	ab 85       	ldd	r26, Y+11	; 0x0b
     a1e:	bc 85       	ldd	r27, Y+12	; 0x0c
     a20:	84 0d       	add	r24, r4
     a22:	95 1d       	adc	r25, r5
     a24:	a6 1d       	adc	r26, r6
     a26:	b7 1d       	adc	r27, r7
     a28:	87 8f       	std	Z+31, r24	; 0x1f
     a2a:	90 a3       	std	Z+32, r25	; 0x20
     a2c:	a1 a3       	std	Z+33, r26	; 0x21
     a2e:	b2 a3       	std	Z+34, r27	; 0x22
     a30:	49 81       	ldd	r20, Y+1	; 0x01
     a32:	5a 81       	ldd	r21, Y+2	; 0x02
     a34:	6b 81       	ldd	r22, Y+3	; 0x03
     a36:	7c 81       	ldd	r23, Y+4	; 0x04
     a38:	44 0d       	add	r20, r4
     a3a:	55 1d       	adc	r21, r5
     a3c:	66 1d       	adc	r22, r6
     a3e:	77 1d       	adc	r23, r7
     a40:	47 a3       	std	Z+39, r20	; 0x27
     a42:	50 a7       	std	Z+40, r21	; 0x28
     a44:	61 a7       	std	Z+41, r22	; 0x29
     a46:	72 a7       	std	Z+42, r23	; 0x2a
     a48:	03 30       	cpi	r16, 0x03	; 3
     a4a:	11 05       	cpc	r17, r1
     a4c:	11 f5       	brne	.+68     	; 0xa92 <mount_volume+0x30e>
     a4e:	cf 01       	movw	r24, r30
     a50:	87 5a       	subi	r24, 0xA7	; 167
     a52:	9f 4f       	sbci	r25, 0xFF	; 255
     a54:	0e 94 c8 00 	call	0x190	; 0x190 <ld_word>
     a58:	89 2b       	or	r24, r25
     a5a:	09 f0       	breq	.+2      	; 0xa5e <mount_volume+0x2da>
     a5c:	f3 c0       	rjmp	.+486    	; 0xc44 <mount_volume+0x4c0>
     a5e:	23 28       	or	r2, r3
     a60:	09 f0       	breq	.+2      	; 0xa64 <mount_volume+0x2e0>
     a62:	f2 c0       	rjmp	.+484    	; 0xc48 <mount_volume+0x4c4>
     a64:	8d 85       	ldd	r24, Y+13	; 0x0d
     a66:	9e 85       	ldd	r25, Y+14	; 0x0e
     a68:	85 5a       	subi	r24, 0xA5	; 165
     a6a:	9f 4f       	sbci	r25, 0xFF	; 255
     a6c:	0e 94 d2 00 	call	0x1a4	; 0x1a4 <ld_dword>
     a70:	ad 85       	ldd	r26, Y+13	; 0x0d
     a72:	be 85       	ldd	r27, Y+14	; 0x0e
     a74:	93 96       	adiw	r26, 0x23	; 35
     a76:	6d 93       	st	X+, r22
     a78:	7d 93       	st	X+, r23
     a7a:	8d 93       	st	X+, r24
     a7c:	9c 93       	st	X, r25
     a7e:	96 97       	sbiw	r26, 0x26	; 38
     a80:	cc 0c       	add	r12, r12
     a82:	dd 1c       	adc	r13, r13
     a84:	ee 1c       	adc	r14, r14
     a86:	ff 1c       	adc	r15, r15
     a88:	cc 0c       	add	r12, r12
     a8a:	dd 1c       	adc	r13, r13
     a8c:	ee 1c       	adc	r14, r14
     a8e:	ff 1c       	adc	r15, r15
     a90:	2e c0       	rjmp	.+92     	; 0xaee <mount_volume+0x36a>
     a92:	23 28       	or	r2, r3
     a94:	09 f4       	brne	.+2      	; 0xa98 <mount_volume+0x314>
     a96:	da c0       	rjmp	.+436    	; 0xc4c <mount_volume+0x4c8>
     a98:	2d 81       	ldd	r18, Y+5	; 0x05
     a9a:	3e 81       	ldd	r19, Y+6	; 0x06
     a9c:	4f 81       	ldd	r20, Y+7	; 0x07
     a9e:	58 85       	ldd	r21, Y+8	; 0x08
     aa0:	82 0f       	add	r24, r18
     aa2:	93 1f       	adc	r25, r19
     aa4:	a4 1f       	adc	r26, r20
     aa6:	b5 1f       	adc	r27, r21
     aa8:	ed 85       	ldd	r30, Y+13	; 0x0d
     aaa:	fe 85       	ldd	r31, Y+14	; 0x0e
     aac:	83 a3       	std	Z+35, r24	; 0x23
     aae:	94 a3       	std	Z+36, r25	; 0x24
     ab0:	a5 a3       	std	Z+37, r26	; 0x25
     ab2:	b6 a3       	std	Z+38, r27	; 0x26
     ab4:	02 30       	cpi	r16, 0x02	; 2
     ab6:	11 05       	cpc	r17, r1
     ab8:	29 f4       	brne	.+10     	; 0xac4 <mount_volume+0x340>
     aba:	cc 0c       	add	r12, r12
     abc:	dd 1c       	adc	r13, r13
     abe:	ee 1c       	adc	r14, r14
     ac0:	ff 1c       	adc	r15, r15
     ac2:	15 c0       	rjmp	.+42     	; 0xaee <mount_volume+0x36a>
     ac4:	a3 e0       	ldi	r26, 0x03	; 3
     ac6:	b0 e0       	ldi	r27, 0x00	; 0
     ac8:	a7 01       	movw	r20, r14
     aca:	96 01       	movw	r18, r12
     acc:	0e 94 f2 17 	call	0x2fe4	; 0x2fe4 <__muluhisi3>
     ad0:	dc 01       	movw	r26, r24
     ad2:	cb 01       	movw	r24, r22
     ad4:	b6 95       	lsr	r27
     ad6:	a7 95       	ror	r26
     ad8:	97 95       	ror	r25
     ada:	87 95       	ror	r24
     adc:	f1 e0       	ldi	r31, 0x01	; 1
     ade:	cf 22       	and	r12, r31
     ae0:	dd 24       	eor	r13, r13
     ae2:	ee 24       	eor	r14, r14
     ae4:	ff 24       	eor	r15, r15
     ae6:	c8 0e       	add	r12, r24
     ae8:	d9 1e       	adc	r13, r25
     aea:	ea 1e       	adc	r14, r26
     aec:	fb 1e       	adc	r15, r27
     aee:	2f ef       	ldi	r18, 0xFF	; 255
     af0:	c2 0e       	add	r12, r18
     af2:	21 e0       	ldi	r18, 0x01	; 1
     af4:	d2 1e       	adc	r13, r18
     af6:	e1 1c       	adc	r14, r1
     af8:	f1 1c       	adc	r15, r1
     afa:	0b 2e       	mov	r0, r27
     afc:	b9 e0       	ldi	r27, 0x09	; 9
     afe:	f6 94       	lsr	r15
     b00:	e7 94       	ror	r14
     b02:	d7 94       	ror	r13
     b04:	c7 94       	ror	r12
     b06:	ba 95       	dec	r27
     b08:	d1 f7       	brne	.-12     	; 0xafe <mount_volume+0x37a>
     b0a:	b0 2d       	mov	r27, r0
     b0c:	8c 14       	cp	r8, r12
     b0e:	9d 04       	cpc	r9, r13
     b10:	ae 04       	cpc	r10, r14
     b12:	bf 04       	cpc	r11, r15
     b14:	08 f4       	brcc	.+2      	; 0xb18 <mount_volume+0x394>
     b16:	9c c0       	rjmp	.+312    	; 0xc50 <mount_volume+0x4cc>
     b18:	8f ef       	ldi	r24, 0xFF	; 255
     b1a:	9f ef       	ldi	r25, 0xFF	; 255
     b1c:	dc 01       	movw	r26, r24
     b1e:	ed 85       	ldd	r30, Y+13	; 0x0d
     b20:	fe 85       	ldd	r31, Y+14	; 0x0e
     b22:	87 87       	std	Z+15, r24	; 0x0f
     b24:	90 8b       	std	Z+16, r25	; 0x10
     b26:	a1 8b       	std	Z+17, r26	; 0x11
     b28:	b2 8b       	std	Z+18, r27	; 0x12
     b2a:	83 87       	std	Z+11, r24	; 0x0b
     b2c:	94 87       	std	Z+12, r25	; 0x0c
     b2e:	a5 87       	std	Z+13, r26	; 0x0d
     b30:	b6 87       	std	Z+14, r27	; 0x0e
     b32:	80 e8       	ldi	r24, 0x80	; 128
     b34:	84 83       	std	Z+4, r24	; 0x04
     b36:	03 30       	cpi	r16, 0x03	; 3
     b38:	11 05       	cpc	r17, r1
     b3a:	09 f0       	breq	.+2      	; 0xb3e <mount_volume+0x3ba>
     b3c:	4f c0       	rjmp	.+158    	; 0xbdc <mount_volume+0x458>
     b3e:	cf 01       	movw	r24, r30
     b40:	81 5a       	subi	r24, 0xA1	; 161
     b42:	9f 4f       	sbci	r25, 0xFF	; 255
     b44:	0e 94 c8 00 	call	0x190	; 0x190 <ld_word>
     b48:	01 97       	sbiw	r24, 0x01	; 1
     b4a:	09 f0       	breq	.+2      	; 0xb4e <mount_volume+0x3ca>
     b4c:	47 c0       	rjmp	.+142    	; 0xbdc <mount_volume+0x458>
     b4e:	b3 01       	movw	r22, r6
     b50:	a2 01       	movw	r20, r4
     b52:	4f 5f       	subi	r20, 0xFF	; 255
     b54:	5f 4f       	sbci	r21, 0xFF	; 255
     b56:	6f 4f       	sbci	r22, 0xFF	; 255
     b58:	7f 4f       	sbci	r23, 0xFF	; 255
     b5a:	8d 85       	ldd	r24, Y+13	; 0x0d
     b5c:	9e 85       	ldd	r25, Y+14	; 0x0e
     b5e:	0e 94 6e 02 	call	0x4dc	; 0x4dc <move_window>
     b62:	81 11       	cpse	r24, r1
     b64:	3b c0       	rjmp	.+118    	; 0xbdc <mount_volume+0x458>
     b66:	ad 85       	ldd	r26, Y+13	; 0x0d
     b68:	be 85       	ldd	r27, Y+14	; 0x0e
     b6a:	14 96       	adiw	r26, 0x04	; 4
     b6c:	1c 92       	st	X, r1
     b6e:	14 97       	sbiw	r26, 0x04	; 4
     b70:	cd 01       	movw	r24, r26
     b72:	83 5d       	subi	r24, 0xD3	; 211
     b74:	9d 4f       	sbci	r25, 0xFD	; 253
     b76:	0e 94 c8 00 	call	0x190	; 0x190 <ld_word>
     b7a:	85 35       	cpi	r24, 0x55	; 85
     b7c:	9a 4a       	sbci	r25, 0xAA	; 170
     b7e:	71 f5       	brne	.+92     	; 0xbdc <mount_volume+0x458>
     b80:	8d 85       	ldd	r24, Y+13	; 0x0d
     b82:	9e 85       	ldd	r25, Y+14	; 0x0e
     b84:	8f 96       	adiw	r24, 0x2f	; 47
     b86:	0e 94 d2 00 	call	0x1a4	; 0x1a4 <ld_dword>
     b8a:	62 35       	cpi	r22, 0x52	; 82
     b8c:	72 45       	sbci	r23, 0x52	; 82
     b8e:	81 46       	sbci	r24, 0x61	; 97
     b90:	91 44       	sbci	r25, 0x41	; 65
     b92:	21 f5       	brne	.+72     	; 0xbdc <mount_volume+0x458>
     b94:	8d 85       	ldd	r24, Y+13	; 0x0d
     b96:	9e 85       	ldd	r25, Y+14	; 0x0e
     b98:	8d 5e       	subi	r24, 0xED	; 237
     b9a:	9d 4f       	sbci	r25, 0xFD	; 253
     b9c:	0e 94 d2 00 	call	0x1a4	; 0x1a4 <ld_dword>
     ba0:	62 37       	cpi	r22, 0x72	; 114
     ba2:	72 47       	sbci	r23, 0x72	; 114
     ba4:	81 44       	sbci	r24, 0x41	; 65
     ba6:	91 46       	sbci	r25, 0x61	; 97
     ba8:	c9 f4       	brne	.+50     	; 0xbdc <mount_volume+0x458>
     baa:	8d 85       	ldd	r24, Y+13	; 0x0d
     bac:	9e 85       	ldd	r25, Y+14	; 0x0e
     bae:	89 5e       	subi	r24, 0xE9	; 233
     bb0:	9d 4f       	sbci	r25, 0xFD	; 253
     bb2:	0e 94 d2 00 	call	0x1a4	; 0x1a4 <ld_dword>
     bb6:	ad 85       	ldd	r26, Y+13	; 0x0d
     bb8:	be 85       	ldd	r27, Y+14	; 0x0e
     bba:	1f 96       	adiw	r26, 0x0f	; 15
     bbc:	6d 93       	st	X+, r22
     bbe:	7d 93       	st	X+, r23
     bc0:	8d 93       	st	X+, r24
     bc2:	9c 93       	st	X, r25
     bc4:	52 97       	sbiw	r26, 0x12	; 18
     bc6:	cd 01       	movw	r24, r26
     bc8:	85 5e       	subi	r24, 0xE5	; 229
     bca:	9d 4f       	sbci	r25, 0xFD	; 253
     bcc:	0e 94 d2 00 	call	0x1a4	; 0x1a4 <ld_dword>
     bd0:	ed 85       	ldd	r30, Y+13	; 0x0d
     bd2:	fe 85       	ldd	r31, Y+14	; 0x0e
     bd4:	63 87       	std	Z+11, r22	; 0x0b
     bd6:	74 87       	std	Z+12, r23	; 0x0c
     bd8:	85 87       	std	Z+13, r24	; 0x0d
     bda:	96 87       	std	Z+14, r25	; 0x0e
     bdc:	ad 85       	ldd	r26, Y+13	; 0x0d
     bde:	be 85       	ldd	r27, Y+14	; 0x0e
     be0:	0c 93       	st	X, r16
     be2:	80 91 50 40 	lds	r24, 0x4050	; 0x804050 <__data_end>
     be6:	90 91 51 40 	lds	r25, 0x4051	; 0x804051 <__data_end+0x1>
     bea:	01 96       	adiw	r24, 0x01	; 1
     bec:	80 93 50 40 	sts	0x4050, r24	; 0x804050 <__data_end>
     bf0:	90 93 51 40 	sts	0x4051, r25	; 0x804051 <__data_end+0x1>
     bf4:	15 96       	adiw	r26, 0x05	; 5
     bf6:	8d 93       	st	X+, r24
     bf8:	9c 93       	st	X, r25
     bfa:	16 97       	sbiw	r26, 0x06	; 6
     bfc:	80 e0       	ldi	r24, 0x00	; 0
     bfe:	29 c0       	rjmp	.+82     	; 0xc52 <mount_volume+0x4ce>
     c00:	8b e0       	ldi	r24, 0x0B	; 11
     c02:	27 c0       	rjmp	.+78     	; 0xc52 <mount_volume+0x4ce>
     c04:	8c e0       	ldi	r24, 0x0C	; 12
     c06:	25 c0       	rjmp	.+74     	; 0xc52 <mount_volume+0x4ce>
     c08:	80 e0       	ldi	r24, 0x00	; 0
     c0a:	23 c0       	rjmp	.+70     	; 0xc52 <mount_volume+0x4ce>
     c0c:	8a e0       	ldi	r24, 0x0A	; 10
     c0e:	21 c0       	rjmp	.+66     	; 0xc52 <mount_volume+0x4ce>
     c10:	83 e0       	ldi	r24, 0x03	; 3
     c12:	1f c0       	rjmp	.+62     	; 0xc52 <mount_volume+0x4ce>
     c14:	8a e0       	ldi	r24, 0x0A	; 10
     c16:	1d c0       	rjmp	.+58     	; 0xc52 <mount_volume+0x4ce>
     c18:	81 e0       	ldi	r24, 0x01	; 1
     c1a:	1b c0       	rjmp	.+54     	; 0xc52 <mount_volume+0x4ce>
     c1c:	8d e0       	ldi	r24, 0x0D	; 13
     c1e:	19 c0       	rjmp	.+50     	; 0xc52 <mount_volume+0x4ce>
     c20:	8d e0       	ldi	r24, 0x0D	; 13
     c22:	17 c0       	rjmp	.+46     	; 0xc52 <mount_volume+0x4ce>
     c24:	8d e0       	ldi	r24, 0x0D	; 13
     c26:	15 c0       	rjmp	.+42     	; 0xc52 <mount_volume+0x4ce>
     c28:	8d e0       	ldi	r24, 0x0D	; 13
     c2a:	13 c0       	rjmp	.+38     	; 0xc52 <mount_volume+0x4ce>
     c2c:	8d e0       	ldi	r24, 0x0D	; 13
     c2e:	11 c0       	rjmp	.+34     	; 0xc52 <mount_volume+0x4ce>
     c30:	8d e0       	ldi	r24, 0x0D	; 13
     c32:	0f c0       	rjmp	.+30     	; 0xc52 <mount_volume+0x4ce>
     c34:	8d e0       	ldi	r24, 0x0D	; 13
     c36:	0d c0       	rjmp	.+26     	; 0xc52 <mount_volume+0x4ce>
     c38:	8d e0       	ldi	r24, 0x0D	; 13
     c3a:	0b c0       	rjmp	.+22     	; 0xc52 <mount_volume+0x4ce>
     c3c:	8d e0       	ldi	r24, 0x0D	; 13
     c3e:	09 c0       	rjmp	.+18     	; 0xc52 <mount_volume+0x4ce>
     c40:	8d e0       	ldi	r24, 0x0D	; 13
     c42:	07 c0       	rjmp	.+14     	; 0xc52 <mount_volume+0x4ce>
     c44:	8d e0       	ldi	r24, 0x0D	; 13
     c46:	05 c0       	rjmp	.+10     	; 0xc52 <mount_volume+0x4ce>
     c48:	8d e0       	ldi	r24, 0x0D	; 13
     c4a:	03 c0       	rjmp	.+6      	; 0xc52 <mount_volume+0x4ce>
     c4c:	8d e0       	ldi	r24, 0x0D	; 13
     c4e:	01 c0       	rjmp	.+2      	; 0xc52 <mount_volume+0x4ce>
     c50:	8d e0       	ldi	r24, 0x0D	; 13
     c52:	2e 96       	adiw	r28, 0x0e	; 14
     c54:	cd bf       	out	0x3d, r28	; 61
     c56:	de bf       	out	0x3e, r29	; 62
     c58:	df 91       	pop	r29
     c5a:	cf 91       	pop	r28
     c5c:	1f 91       	pop	r17
     c5e:	0f 91       	pop	r16
     c60:	ff 90       	pop	r15
     c62:	ef 90       	pop	r14
     c64:	df 90       	pop	r13
     c66:	cf 90       	pop	r12
     c68:	bf 90       	pop	r11
     c6a:	af 90       	pop	r10
     c6c:	9f 90       	pop	r9
     c6e:	8f 90       	pop	r8
     c70:	7f 90       	pop	r7
     c72:	6f 90       	pop	r6
     c74:	5f 90       	pop	r5
     c76:	4f 90       	pop	r4
     c78:	3f 90       	pop	r3
     c7a:	2f 90       	pop	r2
     c7c:	08 95       	ret

00000c7e <put_fat>:
     c7e:	2f 92       	push	r2
     c80:	3f 92       	push	r3
     c82:	4f 92       	push	r4
     c84:	5f 92       	push	r5
     c86:	6f 92       	push	r6
     c88:	7f 92       	push	r7
     c8a:	8f 92       	push	r8
     c8c:	9f 92       	push	r9
     c8e:	af 92       	push	r10
     c90:	bf 92       	push	r11
     c92:	cf 92       	push	r12
     c94:	df 92       	push	r13
     c96:	ef 92       	push	r14
     c98:	ff 92       	push	r15
     c9a:	0f 93       	push	r16
     c9c:	1f 93       	push	r17
     c9e:	cf 93       	push	r28
     ca0:	df 93       	push	r29
     ca2:	00 d0       	rcall	.+0      	; 0xca4 <put_fat+0x26>
     ca4:	00 d0       	rcall	.+0      	; 0xca6 <put_fat+0x28>
     ca6:	cd b7       	in	r28, 0x3d	; 61
     ca8:	de b7       	in	r29, 0x3e	; 62
     caa:	42 30       	cpi	r20, 0x02	; 2
     cac:	51 05       	cpc	r21, r1
     cae:	61 05       	cpc	r22, r1
     cb0:	71 05       	cpc	r23, r1
     cb2:	08 f4       	brcc	.+2      	; 0xcb6 <put_fat+0x38>
     cb4:	f1 c0       	rjmp	.+482    	; 0xe98 <put_fat+0x21a>
     cb6:	fc 01       	movw	r30, r24
     cb8:	c3 88       	ldd	r12, Z+19	; 0x13
     cba:	d4 88       	ldd	r13, Z+20	; 0x14
     cbc:	e5 88       	ldd	r14, Z+21	; 0x15
     cbe:	f6 88       	ldd	r15, Z+22	; 0x16
     cc0:	4c 15       	cp	r20, r12
     cc2:	5d 05       	cpc	r21, r13
     cc4:	6e 05       	cpc	r22, r14
     cc6:	7f 05       	cpc	r23, r15
     cc8:	08 f0       	brcs	.+2      	; 0xccc <put_fat+0x4e>
     cca:	e8 c0       	rjmp	.+464    	; 0xe9c <put_fat+0x21e>
     ccc:	28 01       	movw	r4, r16
     cce:	39 01       	movw	r6, r18
     cd0:	6a 01       	movw	r12, r20
     cd2:	7b 01       	movw	r14, r22
     cd4:	8b 83       	std	Y+3, r24	; 0x03
     cd6:	9c 83       	std	Y+4, r25	; 0x04
     cd8:	80 81       	ld	r24, Z
     cda:	82 30       	cpi	r24, 0x02	; 2
     cdc:	09 f4       	brne	.+2      	; 0xce0 <put_fat+0x62>
     cde:	75 c0       	rjmp	.+234    	; 0xdca <put_fat+0x14c>
     ce0:	83 30       	cpi	r24, 0x03	; 3
     ce2:	09 f4       	brne	.+2      	; 0xce6 <put_fat+0x68>
     ce4:	99 c0       	rjmp	.+306    	; 0xe18 <put_fat+0x19a>
     ce6:	81 30       	cpi	r24, 0x01	; 1
     ce8:	09 f0       	breq	.+2      	; 0xcec <put_fat+0x6e>
     cea:	da c0       	rjmp	.+436    	; 0xea0 <put_fat+0x222>
     cec:	5a 01       	movw	r10, r20
     cee:	b6 94       	lsr	r11
     cf0:	a7 94       	ror	r10
     cf2:	a4 0e       	add	r10, r20
     cf4:	b5 1e       	adc	r11, r21
     cf6:	47 8d       	ldd	r20, Z+31	; 0x1f
     cf8:	50 a1       	ldd	r21, Z+32	; 0x20
     cfa:	61 a1       	ldd	r22, Z+33	; 0x21
     cfc:	72 a1       	ldd	r23, Z+34	; 0x22
     cfe:	c5 01       	movw	r24, r10
     d00:	89 2f       	mov	r24, r25
     d02:	99 27       	eor	r25, r25
     d04:	86 95       	lsr	r24
     d06:	48 0f       	add	r20, r24
     d08:	59 1f       	adc	r21, r25
     d0a:	61 1d       	adc	r22, r1
     d0c:	71 1d       	adc	r23, r1
     d0e:	cf 01       	movw	r24, r30
     d10:	0e 94 6e 02 	call	0x4dc	; 0x4dc <move_window>
     d14:	18 2f       	mov	r17, r24
     d16:	81 11       	cpse	r24, r1
     d18:	c4 c0       	rjmp	.+392    	; 0xea2 <put_fat+0x224>
     d1a:	2b 81       	ldd	r18, Y+3	; 0x03
     d1c:	3c 81       	ldd	r19, Y+4	; 0x04
     d1e:	21 5d       	subi	r18, 0xD1	; 209
     d20:	3f 4f       	sbci	r19, 0xFF	; 255
     d22:	29 83       	std	Y+1, r18	; 0x01
     d24:	3a 83       	std	Y+2, r19	; 0x02
     d26:	15 01       	movw	r2, r10
     d28:	3f ef       	ldi	r19, 0xFF	; 255
     d2a:	23 1a       	sub	r2, r19
     d2c:	33 0a       	sbc	r3, r19
     d2e:	81 e0       	ldi	r24, 0x01	; 1
     d30:	b8 22       	and	r11, r24
     d32:	e9 81       	ldd	r30, Y+1	; 0x01
     d34:	fa 81       	ldd	r31, Y+2	; 0x02
     d36:	ea 0d       	add	r30, r10
     d38:	fb 1d       	adc	r31, r11
     d3a:	46 01       	movw	r8, r12
     d3c:	57 01       	movw	r10, r14
     d3e:	91 e0       	ldi	r25, 0x01	; 1
     d40:	89 22       	and	r8, r25
     d42:	99 24       	eor	r9, r9
     d44:	aa 24       	eor	r10, r10
     d46:	bb 24       	eor	r11, r11
     d48:	c0 fe       	sbrs	r12, 0
     d4a:	08 c0       	rjmp	.+16     	; 0xd5c <put_fat+0xde>
     d4c:	20 81       	ld	r18, Z
     d4e:	30 e1       	ldi	r19, 0x10	; 16
     d50:	43 9e       	mul	r4, r19
     d52:	c0 01       	movw	r24, r0
     d54:	11 24       	eor	r1, r1
     d56:	2f 70       	andi	r18, 0x0F	; 15
     d58:	82 2b       	or	r24, r18
     d5a:	01 c0       	rjmp	.+2      	; 0xd5e <put_fat+0xe0>
     d5c:	84 2d       	mov	r24, r4
     d5e:	80 83       	st	Z, r24
     d60:	81 e0       	ldi	r24, 0x01	; 1
     d62:	eb 81       	ldd	r30, Y+3	; 0x03
     d64:	fc 81       	ldd	r31, Y+4	; 0x04
     d66:	83 83       	std	Z+3, r24	; 0x03
     d68:	47 8d       	ldd	r20, Z+31	; 0x1f
     d6a:	50 a1       	ldd	r21, Z+32	; 0x20
     d6c:	61 a1       	ldd	r22, Z+33	; 0x21
     d6e:	72 a1       	ldd	r23, Z+34	; 0x22
     d70:	c1 01       	movw	r24, r2
     d72:	89 2f       	mov	r24, r25
     d74:	99 27       	eor	r25, r25
     d76:	86 95       	lsr	r24
     d78:	48 0f       	add	r20, r24
     d7a:	59 1f       	adc	r21, r25
     d7c:	61 1d       	adc	r22, r1
     d7e:	71 1d       	adc	r23, r1
     d80:	cf 01       	movw	r24, r30
     d82:	0e 94 6e 02 	call	0x4dc	; 0x4dc <move_window>
     d86:	18 2f       	mov	r17, r24
     d88:	81 11       	cpse	r24, r1
     d8a:	8b c0       	rjmp	.+278    	; 0xea2 <put_fat+0x224>
     d8c:	f1 e0       	ldi	r31, 0x01	; 1
     d8e:	3f 22       	and	r3, r31
     d90:	e9 81       	ldd	r30, Y+1	; 0x01
     d92:	fa 81       	ldd	r31, Y+2	; 0x02
     d94:	e2 0d       	add	r30, r2
     d96:	f3 1d       	adc	r31, r3
     d98:	89 28       	or	r8, r9
     d9a:	8a 28       	or	r8, r10
     d9c:	8b 28       	or	r8, r11
     d9e:	49 f0       	breq	.+18     	; 0xdb2 <put_fat+0x134>
     da0:	68 94       	set
     da2:	13 f8       	bld	r1, 3
     da4:	76 94       	lsr	r7
     da6:	67 94       	ror	r6
     da8:	57 94       	ror	r5
     daa:	47 94       	ror	r4
     dac:	16 94       	lsr	r1
     dae:	d1 f7       	brne	.-12     	; 0xda4 <put_fat+0x126>
     db0:	06 c0       	rjmp	.+12     	; 0xdbe <put_fat+0x140>
     db2:	90 81       	ld	r25, Z
     db4:	90 7f       	andi	r25, 0xF0	; 240
     db6:	85 2d       	mov	r24, r5
     db8:	8f 70       	andi	r24, 0x0F	; 15
     dba:	49 2e       	mov	r4, r25
     dbc:	48 2a       	or	r4, r24
     dbe:	40 82       	st	Z, r4
     dc0:	81 e0       	ldi	r24, 0x01	; 1
     dc2:	eb 81       	ldd	r30, Y+3	; 0x03
     dc4:	fc 81       	ldd	r31, Y+4	; 0x04
     dc6:	83 83       	std	Z+3, r24	; 0x03
     dc8:	6c c0       	rjmp	.+216    	; 0xea2 <put_fat+0x224>
     dca:	eb 81       	ldd	r30, Y+3	; 0x03
     dcc:	fc 81       	ldd	r31, Y+4	; 0x04
     dce:	47 8d       	ldd	r20, Z+31	; 0x1f
     dd0:	50 a1       	ldd	r21, Z+32	; 0x20
     dd2:	61 a1       	ldd	r22, Z+33	; 0x21
     dd4:	72 a1       	ldd	r23, Z+34	; 0x22
     dd6:	bb 27       	eor	r27, r27
     dd8:	af 2d       	mov	r26, r15
     dda:	9e 2d       	mov	r25, r14
     ddc:	8d 2d       	mov	r24, r13
     dde:	48 0f       	add	r20, r24
     de0:	59 1f       	adc	r21, r25
     de2:	6a 1f       	adc	r22, r26
     de4:	7b 1f       	adc	r23, r27
     de6:	cf 01       	movw	r24, r30
     de8:	0e 94 6e 02 	call	0x4dc	; 0x4dc <move_window>
     dec:	18 2f       	mov	r17, r24
     dee:	81 11       	cpse	r24, r1
     df0:	58 c0       	rjmp	.+176    	; 0xea2 <put_fat+0x224>
     df2:	2b 81       	ldd	r18, Y+3	; 0x03
     df4:	3c 81       	ldd	r19, Y+4	; 0x04
     df6:	21 5d       	subi	r18, 0xD1	; 209
     df8:	3f 4f       	sbci	r19, 0xFF	; 255
     dfa:	cc 0c       	add	r12, r12
     dfc:	dd 1c       	adc	r13, r13
     dfe:	c6 01       	movw	r24, r12
     e00:	8e 7f       	andi	r24, 0xFE	; 254
     e02:	91 70       	andi	r25, 0x01	; 1
     e04:	b2 01       	movw	r22, r4
     e06:	82 0f       	add	r24, r18
     e08:	93 1f       	adc	r25, r19
     e0a:	0e 94 ed 00 	call	0x1da	; 0x1da <st_word>
     e0e:	81 e0       	ldi	r24, 0x01	; 1
     e10:	eb 81       	ldd	r30, Y+3	; 0x03
     e12:	fc 81       	ldd	r31, Y+4	; 0x04
     e14:	83 83       	std	Z+3, r24	; 0x03
     e16:	45 c0       	rjmp	.+138    	; 0xea2 <put_fat+0x224>
     e18:	eb 81       	ldd	r30, Y+3	; 0x03
     e1a:	fc 81       	ldd	r31, Y+4	; 0x04
     e1c:	47 8d       	ldd	r20, Z+31	; 0x1f
     e1e:	50 a1       	ldd	r21, Z+32	; 0x20
     e20:	61 a1       	ldd	r22, Z+33	; 0x21
     e22:	72 a1       	ldd	r23, Z+34	; 0x22
     e24:	d7 01       	movw	r26, r14
     e26:	c6 01       	movw	r24, r12
     e28:	68 94       	set
     e2a:	16 f8       	bld	r1, 6
     e2c:	b6 95       	lsr	r27
     e2e:	a7 95       	ror	r26
     e30:	97 95       	ror	r25
     e32:	87 95       	ror	r24
     e34:	16 94       	lsr	r1
     e36:	d1 f7       	brne	.-12     	; 0xe2c <put_fat+0x1ae>
     e38:	48 0f       	add	r20, r24
     e3a:	59 1f       	adc	r21, r25
     e3c:	6a 1f       	adc	r22, r26
     e3e:	7b 1f       	adc	r23, r27
     e40:	cf 01       	movw	r24, r30
     e42:	0e 94 6e 02 	call	0x4dc	; 0x4dc <move_window>
     e46:	18 2f       	mov	r17, r24
     e48:	81 11       	cpse	r24, r1
     e4a:	2b c0       	rjmp	.+86     	; 0xea2 <put_fat+0x224>
     e4c:	ff e0       	ldi	r31, 0x0F	; 15
     e4e:	7f 22       	and	r7, r31
     e50:	8b 81       	ldd	r24, Y+3	; 0x03
     e52:	9c 81       	ldd	r25, Y+4	; 0x04
     e54:	8f 96       	adiw	r24, 0x2f	; 47
     e56:	cc 0c       	add	r12, r12
     e58:	dd 1c       	adc	r13, r13
     e5a:	cc 0c       	add	r12, r12
     e5c:	dd 1c       	adc	r13, r13
     e5e:	2c ef       	ldi	r18, 0xFC	; 252
     e60:	c2 22       	and	r12, r18
     e62:	21 e0       	ldi	r18, 0x01	; 1
     e64:	d2 22       	and	r13, r18
     e66:	c8 0e       	add	r12, r24
     e68:	d9 1e       	adc	r13, r25
     e6a:	c6 01       	movw	r24, r12
     e6c:	0e 94 d2 00 	call	0x1a4	; 0x1a4 <ld_dword>
     e70:	dc 01       	movw	r26, r24
     e72:	cb 01       	movw	r24, r22
     e74:	88 27       	eor	r24, r24
     e76:	99 27       	eor	r25, r25
     e78:	aa 27       	eor	r26, r26
     e7a:	b0 7f       	andi	r27, 0xF0	; 240
     e7c:	b3 01       	movw	r22, r6
     e7e:	a2 01       	movw	r20, r4
     e80:	48 2b       	or	r20, r24
     e82:	59 2b       	or	r21, r25
     e84:	6a 2b       	or	r22, r26
     e86:	7b 2b       	or	r23, r27
     e88:	c6 01       	movw	r24, r12
     e8a:	0e 94 f1 00 	call	0x1e2	; 0x1e2 <st_dword>
     e8e:	81 e0       	ldi	r24, 0x01	; 1
     e90:	eb 81       	ldd	r30, Y+3	; 0x03
     e92:	fc 81       	ldd	r31, Y+4	; 0x04
     e94:	83 83       	std	Z+3, r24	; 0x03
     e96:	05 c0       	rjmp	.+10     	; 0xea2 <put_fat+0x224>
     e98:	12 e0       	ldi	r17, 0x02	; 2
     e9a:	03 c0       	rjmp	.+6      	; 0xea2 <put_fat+0x224>
     e9c:	12 e0       	ldi	r17, 0x02	; 2
     e9e:	01 c0       	rjmp	.+2      	; 0xea2 <put_fat+0x224>
     ea0:	12 e0       	ldi	r17, 0x02	; 2
     ea2:	81 2f       	mov	r24, r17
     ea4:	24 96       	adiw	r28, 0x04	; 4
     ea6:	cd bf       	out	0x3d, r28	; 61
     ea8:	de bf       	out	0x3e, r29	; 62
     eaa:	df 91       	pop	r29
     eac:	cf 91       	pop	r28
     eae:	1f 91       	pop	r17
     eb0:	0f 91       	pop	r16
     eb2:	ff 90       	pop	r15
     eb4:	ef 90       	pop	r14
     eb6:	df 90       	pop	r13
     eb8:	cf 90       	pop	r12
     eba:	bf 90       	pop	r11
     ebc:	af 90       	pop	r10
     ebe:	9f 90       	pop	r9
     ec0:	8f 90       	pop	r8
     ec2:	7f 90       	pop	r7
     ec4:	6f 90       	pop	r6
     ec6:	5f 90       	pop	r5
     ec8:	4f 90       	pop	r4
     eca:	3f 90       	pop	r3
     ecc:	2f 90       	pop	r2
     ece:	08 95       	ret

00000ed0 <get_fat>:
     ed0:	af 92       	push	r10
     ed2:	bf 92       	push	r11
     ed4:	cf 92       	push	r12
     ed6:	df 92       	push	r13
     ed8:	ef 92       	push	r14
     eda:	ff 92       	push	r15
     edc:	0f 93       	push	r16
     ede:	1f 93       	push	r17
     ee0:	cf 93       	push	r28
     ee2:	df 93       	push	r29
     ee4:	fc 01       	movw	r30, r24
     ee6:	c0 81       	ld	r28, Z
     ee8:	d1 81       	ldd	r29, Z+1	; 0x01
     eea:	42 30       	cpi	r20, 0x02	; 2
     eec:	51 05       	cpc	r21, r1
     eee:	61 05       	cpc	r22, r1
     ef0:	71 05       	cpc	r23, r1
     ef2:	08 f4       	brcc	.+2      	; 0xef6 <get_fat+0x26>
     ef4:	a6 c0       	rjmp	.+332    	; 0x1042 <get_fat+0x172>
     ef6:	8b 89       	ldd	r24, Y+19	; 0x13
     ef8:	9c 89       	ldd	r25, Y+20	; 0x14
     efa:	ad 89       	ldd	r26, Y+21	; 0x15
     efc:	be 89       	ldd	r27, Y+22	; 0x16
     efe:	48 17       	cp	r20, r24
     f00:	59 07       	cpc	r21, r25
     f02:	6a 07       	cpc	r22, r26
     f04:	7b 07       	cpc	r23, r27
     f06:	08 f0       	brcs	.+2      	; 0xf0a <get_fat+0x3a>
     f08:	a1 c0       	rjmp	.+322    	; 0x104c <get_fat+0x17c>
     f0a:	6a 01       	movw	r12, r20
     f0c:	7b 01       	movw	r14, r22
     f0e:	88 81       	ld	r24, Y
     f10:	82 30       	cpi	r24, 0x02	; 2
     f12:	09 f4       	brne	.+2      	; 0xf16 <get_fat+0x46>
     f14:	50 c0       	rjmp	.+160    	; 0xfb6 <get_fat+0xe6>
     f16:	83 30       	cpi	r24, 0x03	; 3
     f18:	09 f4       	brne	.+2      	; 0xf1c <get_fat+0x4c>
     f1a:	6d c0       	rjmp	.+218    	; 0xff6 <get_fat+0x126>
     f1c:	81 30       	cpi	r24, 0x01	; 1
     f1e:	09 f0       	breq	.+2      	; 0xf22 <get_fat+0x52>
     f20:	9a c0       	rjmp	.+308    	; 0x1056 <get_fat+0x186>
     f22:	8a 01       	movw	r16, r20
     f24:	16 95       	lsr	r17
     f26:	07 95       	ror	r16
     f28:	04 0f       	add	r16, r20
     f2a:	15 1f       	adc	r17, r21
     f2c:	4f 8d       	ldd	r20, Y+31	; 0x1f
     f2e:	58 a1       	ldd	r21, Y+32	; 0x20
     f30:	69 a1       	ldd	r22, Y+33	; 0x21
     f32:	7a a1       	ldd	r23, Y+34	; 0x22
     f34:	c8 01       	movw	r24, r16
     f36:	89 2f       	mov	r24, r25
     f38:	99 27       	eor	r25, r25
     f3a:	86 95       	lsr	r24
     f3c:	48 0f       	add	r20, r24
     f3e:	59 1f       	adc	r21, r25
     f40:	61 1d       	adc	r22, r1
     f42:	71 1d       	adc	r23, r1
     f44:	ce 01       	movw	r24, r28
     f46:	0e 94 6e 02 	call	0x4dc	; 0x4dc <move_window>
     f4a:	81 11       	cpse	r24, r1
     f4c:	89 c0       	rjmp	.+274    	; 0x1060 <get_fat+0x190>
     f4e:	58 01       	movw	r10, r16
     f50:	ff ef       	ldi	r31, 0xFF	; 255
     f52:	af 1a       	sub	r10, r31
     f54:	bf 0a       	sbc	r11, r31
     f56:	11 70       	andi	r17, 0x01	; 1
     f58:	fe 01       	movw	r30, r28
     f5a:	e0 0f       	add	r30, r16
     f5c:	f1 1f       	adc	r31, r17
     f5e:	07 a5       	ldd	r16, Z+47	; 0x2f
     f60:	10 e0       	ldi	r17, 0x00	; 0
     f62:	4f 8d       	ldd	r20, Y+31	; 0x1f
     f64:	58 a1       	ldd	r21, Y+32	; 0x20
     f66:	69 a1       	ldd	r22, Y+33	; 0x21
     f68:	7a a1       	ldd	r23, Y+34	; 0x22
     f6a:	c5 01       	movw	r24, r10
     f6c:	89 2f       	mov	r24, r25
     f6e:	99 27       	eor	r25, r25
     f70:	86 95       	lsr	r24
     f72:	48 0f       	add	r20, r24
     f74:	59 1f       	adc	r21, r25
     f76:	61 1d       	adc	r22, r1
     f78:	71 1d       	adc	r23, r1
     f7a:	ce 01       	movw	r24, r28
     f7c:	0e 94 6e 02 	call	0x4dc	; 0x4dc <move_window>
     f80:	81 11       	cpse	r24, r1
     f82:	72 c0       	rjmp	.+228    	; 0x1068 <get_fat+0x198>
     f84:	81 e0       	ldi	r24, 0x01	; 1
     f86:	b8 22       	and	r11, r24
     f88:	ca 0d       	add	r28, r10
     f8a:	db 1d       	adc	r29, r11
     f8c:	6f a5       	ldd	r22, Y+47	; 0x2f
     f8e:	70 e0       	ldi	r23, 0x00	; 0
     f90:	76 2f       	mov	r23, r22
     f92:	66 27       	eor	r22, r22
     f94:	60 2b       	or	r22, r16
     f96:	71 2b       	or	r23, r17
     f98:	c0 fe       	sbrs	r12, 0
     f9a:	09 c0       	rjmp	.+18     	; 0xfae <get_fat+0xde>
     f9c:	72 95       	swap	r23
     f9e:	62 95       	swap	r22
     fa0:	6f 70       	andi	r22, 0x0F	; 15
     fa2:	67 27       	eor	r22, r23
     fa4:	7f 70       	andi	r23, 0x0F	; 15
     fa6:	67 27       	eor	r22, r23
     fa8:	80 e0       	ldi	r24, 0x00	; 0
     faa:	90 e0       	ldi	r25, 0x00	; 0
     fac:	68 c0       	rjmp	.+208    	; 0x107e <get_fat+0x1ae>
     fae:	7f 70       	andi	r23, 0x0F	; 15
     fb0:	80 e0       	ldi	r24, 0x00	; 0
     fb2:	90 e0       	ldi	r25, 0x00	; 0
     fb4:	64 c0       	rjmp	.+200    	; 0x107e <get_fat+0x1ae>
     fb6:	4f 8d       	ldd	r20, Y+31	; 0x1f
     fb8:	58 a1       	ldd	r21, Y+32	; 0x20
     fba:	69 a1       	ldd	r22, Y+33	; 0x21
     fbc:	7a a1       	ldd	r23, Y+34	; 0x22
     fbe:	bb 27       	eor	r27, r27
     fc0:	af 2d       	mov	r26, r15
     fc2:	9e 2d       	mov	r25, r14
     fc4:	8d 2d       	mov	r24, r13
     fc6:	48 0f       	add	r20, r24
     fc8:	59 1f       	adc	r21, r25
     fca:	6a 1f       	adc	r22, r26
     fcc:	7b 1f       	adc	r23, r27
     fce:	ce 01       	movw	r24, r28
     fd0:	0e 94 6e 02 	call	0x4dc	; 0x4dc <move_window>
     fd4:	81 11       	cpse	r24, r1
     fd6:	4c c0       	rjmp	.+152    	; 0x1070 <get_fat+0x1a0>
     fd8:	ce 01       	movw	r24, r28
     fda:	8f 96       	adiw	r24, 0x2f	; 47
     fdc:	a6 01       	movw	r20, r12
     fde:	44 0f       	add	r20, r20
     fe0:	55 1f       	adc	r21, r21
     fe2:	4e 7f       	andi	r20, 0xFE	; 254
     fe4:	51 70       	andi	r21, 0x01	; 1
     fe6:	84 0f       	add	r24, r20
     fe8:	95 1f       	adc	r25, r21
     fea:	0e 94 c8 00 	call	0x190	; 0x190 <ld_word>
     fee:	bc 01       	movw	r22, r24
     ff0:	80 e0       	ldi	r24, 0x00	; 0
     ff2:	90 e0       	ldi	r25, 0x00	; 0
     ff4:	44 c0       	rjmp	.+136    	; 0x107e <get_fat+0x1ae>
     ff6:	4f 8d       	ldd	r20, Y+31	; 0x1f
     ff8:	58 a1       	ldd	r21, Y+32	; 0x20
     ffa:	69 a1       	ldd	r22, Y+33	; 0x21
     ffc:	7a a1       	ldd	r23, Y+34	; 0x22
     ffe:	d7 01       	movw	r26, r14
    1000:	c6 01       	movw	r24, r12
    1002:	68 94       	set
    1004:	16 f8       	bld	r1, 6
    1006:	b6 95       	lsr	r27
    1008:	a7 95       	ror	r26
    100a:	97 95       	ror	r25
    100c:	87 95       	ror	r24
    100e:	16 94       	lsr	r1
    1010:	d1 f7       	brne	.-12     	; 0x1006 <get_fat+0x136>
    1012:	48 0f       	add	r20, r24
    1014:	59 1f       	adc	r21, r25
    1016:	6a 1f       	adc	r22, r26
    1018:	7b 1f       	adc	r23, r27
    101a:	ce 01       	movw	r24, r28
    101c:	0e 94 6e 02 	call	0x4dc	; 0x4dc <move_window>
    1020:	81 11       	cpse	r24, r1
    1022:	2a c0       	rjmp	.+84     	; 0x1078 <get_fat+0x1a8>
    1024:	af 96       	adiw	r28, 0x2f	; 47
    1026:	a6 01       	movw	r20, r12
    1028:	44 0f       	add	r20, r20
    102a:	55 1f       	adc	r21, r21
    102c:	44 0f       	add	r20, r20
    102e:	55 1f       	adc	r21, r21
    1030:	ca 01       	movw	r24, r20
    1032:	8c 7f       	andi	r24, 0xFC	; 252
    1034:	91 70       	andi	r25, 0x01	; 1
    1036:	8c 0f       	add	r24, r28
    1038:	9d 1f       	adc	r25, r29
    103a:	0e 94 d2 00 	call	0x1a4	; 0x1a4 <ld_dword>
    103e:	9f 70       	andi	r25, 0x0F	; 15
    1040:	1e c0       	rjmp	.+60     	; 0x107e <get_fat+0x1ae>
    1042:	61 e0       	ldi	r22, 0x01	; 1
    1044:	70 e0       	ldi	r23, 0x00	; 0
    1046:	80 e0       	ldi	r24, 0x00	; 0
    1048:	90 e0       	ldi	r25, 0x00	; 0
    104a:	19 c0       	rjmp	.+50     	; 0x107e <get_fat+0x1ae>
    104c:	61 e0       	ldi	r22, 0x01	; 1
    104e:	70 e0       	ldi	r23, 0x00	; 0
    1050:	80 e0       	ldi	r24, 0x00	; 0
    1052:	90 e0       	ldi	r25, 0x00	; 0
    1054:	14 c0       	rjmp	.+40     	; 0x107e <get_fat+0x1ae>
    1056:	61 e0       	ldi	r22, 0x01	; 1
    1058:	70 e0       	ldi	r23, 0x00	; 0
    105a:	80 e0       	ldi	r24, 0x00	; 0
    105c:	90 e0       	ldi	r25, 0x00	; 0
    105e:	0f c0       	rjmp	.+30     	; 0x107e <get_fat+0x1ae>
    1060:	6f ef       	ldi	r22, 0xFF	; 255
    1062:	7f ef       	ldi	r23, 0xFF	; 255
    1064:	cb 01       	movw	r24, r22
    1066:	0b c0       	rjmp	.+22     	; 0x107e <get_fat+0x1ae>
    1068:	6f ef       	ldi	r22, 0xFF	; 255
    106a:	7f ef       	ldi	r23, 0xFF	; 255
    106c:	cb 01       	movw	r24, r22
    106e:	07 c0       	rjmp	.+14     	; 0x107e <get_fat+0x1ae>
    1070:	6f ef       	ldi	r22, 0xFF	; 255
    1072:	7f ef       	ldi	r23, 0xFF	; 255
    1074:	cb 01       	movw	r24, r22
    1076:	03 c0       	rjmp	.+6      	; 0x107e <get_fat+0x1ae>
    1078:	6f ef       	ldi	r22, 0xFF	; 255
    107a:	7f ef       	ldi	r23, 0xFF	; 255
    107c:	cb 01       	movw	r24, r22
    107e:	df 91       	pop	r29
    1080:	cf 91       	pop	r28
    1082:	1f 91       	pop	r17
    1084:	0f 91       	pop	r16
    1086:	ff 90       	pop	r15
    1088:	ef 90       	pop	r14
    108a:	df 90       	pop	r13
    108c:	cf 90       	pop	r12
    108e:	bf 90       	pop	r11
    1090:	af 90       	pop	r10
    1092:	08 95       	ret

00001094 <dir_sdi>:
    1094:	4f 92       	push	r4
    1096:	5f 92       	push	r5
    1098:	6f 92       	push	r6
    109a:	7f 92       	push	r7
    109c:	8f 92       	push	r8
    109e:	9f 92       	push	r9
    10a0:	af 92       	push	r10
    10a2:	bf 92       	push	r11
    10a4:	cf 92       	push	r12
    10a6:	df 92       	push	r13
    10a8:	ef 92       	push	r14
    10aa:	ff 92       	push	r15
    10ac:	0f 93       	push	r16
    10ae:	1f 93       	push	r17
    10b0:	cf 93       	push	r28
    10b2:	df 93       	push	r29
    10b4:	ec 01       	movw	r28, r24
    10b6:	6a 01       	movw	r12, r20
    10b8:	7b 01       	movw	r14, r22
    10ba:	08 81       	ld	r16, Y
    10bc:	19 81       	ldd	r17, Y+1	; 0x01
    10be:	41 15       	cp	r20, r1
    10c0:	51 05       	cpc	r21, r1
    10c2:	80 e2       	ldi	r24, 0x20	; 32
    10c4:	68 07       	cpc	r22, r24
    10c6:	71 05       	cpc	r23, r1
    10c8:	08 f0       	brcs	.+2      	; 0x10cc <dir_sdi+0x38>
    10ca:	ac c0       	rjmp	.+344    	; 0x1224 <dir_sdi+0x190>
    10cc:	db 01       	movw	r26, r22
    10ce:	ca 01       	movw	r24, r20
    10d0:	8f 71       	andi	r24, 0x1F	; 31
    10d2:	99 27       	eor	r25, r25
    10d4:	aa 27       	eor	r26, r26
    10d6:	bb 27       	eor	r27, r27
    10d8:	89 2b       	or	r24, r25
    10da:	8a 2b       	or	r24, r26
    10dc:	8b 2b       	or	r24, r27
    10de:	09 f0       	breq	.+2      	; 0x10e2 <dir_sdi+0x4e>
    10e0:	a3 c0       	rjmp	.+326    	; 0x1228 <dir_sdi+0x194>
    10e2:	4e 87       	std	Y+14, r20	; 0x0e
    10e4:	5f 87       	std	Y+15, r21	; 0x0f
    10e6:	68 8b       	std	Y+16, r22	; 0x10
    10e8:	79 8b       	std	Y+17, r23	; 0x11
    10ea:	8e 80       	ldd	r8, Y+6	; 0x06
    10ec:	9f 80       	ldd	r9, Y+7	; 0x07
    10ee:	a8 84       	ldd	r10, Y+8	; 0x08
    10f0:	b9 84       	ldd	r11, Y+9	; 0x09
    10f2:	81 14       	cp	r8, r1
    10f4:	91 04       	cpc	r9, r1
    10f6:	a1 04       	cpc	r10, r1
    10f8:	b1 04       	cpc	r11, r1
    10fa:	41 f4       	brne	.+16     	; 0x110c <dir_sdi+0x78>
    10fc:	f8 01       	movw	r30, r16
    10fe:	80 81       	ld	r24, Z
    1100:	83 30       	cpi	r24, 0x03	; 3
    1102:	20 f0       	brcs	.+8      	; 0x110c <dir_sdi+0x78>
    1104:	83 a0       	ldd	r8, Z+35	; 0x23
    1106:	94 a0       	ldd	r9, Z+36	; 0x24
    1108:	a5 a0       	ldd	r10, Z+37	; 0x25
    110a:	b6 a0       	ldd	r11, Z+38	; 0x26
    110c:	81 14       	cp	r8, r1
    110e:	91 04       	cpc	r9, r1
    1110:	a1 04       	cpc	r10, r1
    1112:	b1 04       	cpc	r11, r1
    1114:	f1 f4       	brne	.+60     	; 0x1152 <dir_sdi+0xbe>
    1116:	f8 01       	movw	r30, r16
    1118:	87 81       	ldd	r24, Z+7	; 0x07
    111a:	90 85       	ldd	r25, Z+8	; 0x08
    111c:	a0 e0       	ldi	r26, 0x00	; 0
    111e:	b0 e0       	ldi	r27, 0x00	; 0
    1120:	b7 01       	movw	r22, r14
    1122:	a6 01       	movw	r20, r12
    1124:	68 94       	set
    1126:	14 f8       	bld	r1, 4
    1128:	76 95       	lsr	r23
    112a:	67 95       	ror	r22
    112c:	57 95       	ror	r21
    112e:	47 95       	ror	r20
    1130:	16 94       	lsr	r1
    1132:	d1 f7       	brne	.-12     	; 0x1128 <dir_sdi+0x94>
    1134:	48 17       	cp	r20, r24
    1136:	59 07       	cpc	r21, r25
    1138:	6a 07       	cpc	r22, r26
    113a:	7b 07       	cpc	r23, r27
    113c:	08 f0       	brcs	.+2      	; 0x1140 <dir_sdi+0xac>
    113e:	76 c0       	rjmp	.+236    	; 0x122c <dir_sdi+0x198>
    1140:	83 a1       	ldd	r24, Z+35	; 0x23
    1142:	94 a1       	ldd	r25, Z+36	; 0x24
    1144:	a5 a1       	ldd	r26, Z+37	; 0x25
    1146:	b6 a1       	ldd	r27, Z+38	; 0x26
    1148:	8e 8b       	std	Y+22, r24	; 0x16
    114a:	9f 8b       	std	Y+23, r25	; 0x17
    114c:	a8 8f       	std	Y+24, r26	; 0x18
    114e:	b9 8f       	std	Y+25, r27	; 0x19
    1150:	40 c0       	rjmp	.+128    	; 0x11d2 <dir_sdi+0x13e>
    1152:	f8 01       	movw	r30, r16
    1154:	41 84       	ldd	r4, Z+9	; 0x09
    1156:	52 84       	ldd	r5, Z+10	; 0x0a
    1158:	61 2c       	mov	r6, r1
    115a:	71 2c       	mov	r7, r1
    115c:	03 2e       	mov	r0, r19
    115e:	39 e0       	ldi	r19, 0x09	; 9
    1160:	44 0c       	add	r4, r4
    1162:	55 1c       	adc	r5, r5
    1164:	66 1c       	adc	r6, r6
    1166:	77 1c       	adc	r7, r7
    1168:	3a 95       	dec	r19
    116a:	d1 f7       	brne	.-12     	; 0x1160 <dir_sdi+0xcc>
    116c:	30 2d       	mov	r19, r0
    116e:	23 c0       	rjmp	.+70     	; 0x11b6 <dir_sdi+0x122>
    1170:	b5 01       	movw	r22, r10
    1172:	a4 01       	movw	r20, r8
    1174:	ce 01       	movw	r24, r28
    1176:	0e 94 68 07 	call	0xed0	; 0xed0 <get_fat>
    117a:	4b 01       	movw	r8, r22
    117c:	5c 01       	movw	r10, r24
    117e:	6f 3f       	cpi	r22, 0xFF	; 255
    1180:	7f 4f       	sbci	r23, 0xFF	; 255
    1182:	8f 4f       	sbci	r24, 0xFF	; 255
    1184:	9f 4f       	sbci	r25, 0xFF	; 255
    1186:	09 f4       	brne	.+2      	; 0x118a <dir_sdi+0xf6>
    1188:	53 c0       	rjmp	.+166    	; 0x1230 <dir_sdi+0x19c>
    118a:	82 e0       	ldi	r24, 0x02	; 2
    118c:	88 16       	cp	r8, r24
    118e:	91 04       	cpc	r9, r1
    1190:	a1 04       	cpc	r10, r1
    1192:	b1 04       	cpc	r11, r1
    1194:	08 f4       	brcc	.+2      	; 0x1198 <dir_sdi+0x104>
    1196:	4e c0       	rjmp	.+156    	; 0x1234 <dir_sdi+0x1a0>
    1198:	f8 01       	movw	r30, r16
    119a:	83 89       	ldd	r24, Z+19	; 0x13
    119c:	94 89       	ldd	r25, Z+20	; 0x14
    119e:	a5 89       	ldd	r26, Z+21	; 0x15
    11a0:	b6 89       	ldd	r27, Z+22	; 0x16
    11a2:	88 16       	cp	r8, r24
    11a4:	99 06       	cpc	r9, r25
    11a6:	aa 06       	cpc	r10, r26
    11a8:	bb 06       	cpc	r11, r27
    11aa:	08 f0       	brcs	.+2      	; 0x11ae <dir_sdi+0x11a>
    11ac:	45 c0       	rjmp	.+138    	; 0x1238 <dir_sdi+0x1a4>
    11ae:	c4 18       	sub	r12, r4
    11b0:	d5 08       	sbc	r13, r5
    11b2:	e6 08       	sbc	r14, r6
    11b4:	f7 08       	sbc	r15, r7
    11b6:	c4 14       	cp	r12, r4
    11b8:	d5 04       	cpc	r13, r5
    11ba:	e6 04       	cpc	r14, r6
    11bc:	f7 04       	cpc	r15, r7
    11be:	c0 f6       	brcc	.-80     	; 0x1170 <dir_sdi+0xdc>
    11c0:	b5 01       	movw	r22, r10
    11c2:	a4 01       	movw	r20, r8
    11c4:	c8 01       	movw	r24, r16
    11c6:	0e 94 27 01 	call	0x24e	; 0x24e <clst2sect>
    11ca:	6e 8b       	std	Y+22, r22	; 0x16
    11cc:	7f 8b       	std	Y+23, r23	; 0x17
    11ce:	88 8f       	std	Y+24, r24	; 0x18
    11d0:	99 8f       	std	Y+25, r25	; 0x19
    11d2:	8a 8a       	std	Y+18, r8	; 0x12
    11d4:	9b 8a       	std	Y+19, r9	; 0x13
    11d6:	ac 8a       	std	Y+20, r10	; 0x14
    11d8:	bd 8a       	std	Y+21, r11	; 0x15
    11da:	8e 89       	ldd	r24, Y+22	; 0x16
    11dc:	9f 89       	ldd	r25, Y+23	; 0x17
    11de:	a8 8d       	ldd	r26, Y+24	; 0x18
    11e0:	b9 8d       	ldd	r27, Y+25	; 0x19
    11e2:	00 97       	sbiw	r24, 0x00	; 0
    11e4:	a1 05       	cpc	r26, r1
    11e6:	b1 05       	cpc	r27, r1
    11e8:	49 f1       	breq	.+82     	; 0x123c <dir_sdi+0x1a8>
    11ea:	b7 01       	movw	r22, r14
    11ec:	a6 01       	movw	r20, r12
    11ee:	03 2e       	mov	r0, r19
    11f0:	39 e0       	ldi	r19, 0x09	; 9
    11f2:	76 95       	lsr	r23
    11f4:	67 95       	ror	r22
    11f6:	57 95       	ror	r21
    11f8:	47 95       	ror	r20
    11fa:	3a 95       	dec	r19
    11fc:	d1 f7       	brne	.-12     	; 0x11f2 <dir_sdi+0x15e>
    11fe:	30 2d       	mov	r19, r0
    1200:	84 0f       	add	r24, r20
    1202:	95 1f       	adc	r25, r21
    1204:	a6 1f       	adc	r26, r22
    1206:	b7 1f       	adc	r27, r23
    1208:	8e 8b       	std	Y+22, r24	; 0x16
    120a:	9f 8b       	std	Y+23, r25	; 0x17
    120c:	a8 8f       	std	Y+24, r26	; 0x18
    120e:	b9 8f       	std	Y+25, r27	; 0x19
    1210:	01 5d       	subi	r16, 0xD1	; 209
    1212:	1f 4f       	sbci	r17, 0xFF	; 255
    1214:	f1 e0       	ldi	r31, 0x01	; 1
    1216:	df 22       	and	r13, r31
    1218:	c0 0e       	add	r12, r16
    121a:	d1 1e       	adc	r13, r17
    121c:	ca 8e       	std	Y+26, r12	; 0x1a
    121e:	db 8e       	std	Y+27, r13	; 0x1b
    1220:	80 e0       	ldi	r24, 0x00	; 0
    1222:	0d c0       	rjmp	.+26     	; 0x123e <dir_sdi+0x1aa>
    1224:	82 e0       	ldi	r24, 0x02	; 2
    1226:	0b c0       	rjmp	.+22     	; 0x123e <dir_sdi+0x1aa>
    1228:	82 e0       	ldi	r24, 0x02	; 2
    122a:	09 c0       	rjmp	.+18     	; 0x123e <dir_sdi+0x1aa>
    122c:	82 e0       	ldi	r24, 0x02	; 2
    122e:	07 c0       	rjmp	.+14     	; 0x123e <dir_sdi+0x1aa>
    1230:	81 e0       	ldi	r24, 0x01	; 1
    1232:	05 c0       	rjmp	.+10     	; 0x123e <dir_sdi+0x1aa>
    1234:	82 e0       	ldi	r24, 0x02	; 2
    1236:	03 c0       	rjmp	.+6      	; 0x123e <dir_sdi+0x1aa>
    1238:	82 e0       	ldi	r24, 0x02	; 2
    123a:	01 c0       	rjmp	.+2      	; 0x123e <dir_sdi+0x1aa>
    123c:	82 e0       	ldi	r24, 0x02	; 2
    123e:	df 91       	pop	r29
    1240:	cf 91       	pop	r28
    1242:	1f 91       	pop	r17
    1244:	0f 91       	pop	r16
    1246:	ff 90       	pop	r15
    1248:	ef 90       	pop	r14
    124a:	df 90       	pop	r13
    124c:	cf 90       	pop	r12
    124e:	bf 90       	pop	r11
    1250:	af 90       	pop	r10
    1252:	9f 90       	pop	r9
    1254:	8f 90       	pop	r8
    1256:	7f 90       	pop	r7
    1258:	6f 90       	pop	r6
    125a:	5f 90       	pop	r5
    125c:	4f 90       	pop	r4
    125e:	08 95       	ret

00001260 <create_chain>:
    1260:	4f 92       	push	r4
    1262:	5f 92       	push	r5
    1264:	6f 92       	push	r6
    1266:	7f 92       	push	r7
    1268:	8f 92       	push	r8
    126a:	9f 92       	push	r9
    126c:	af 92       	push	r10
    126e:	bf 92       	push	r11
    1270:	cf 92       	push	r12
    1272:	df 92       	push	r13
    1274:	ef 92       	push	r14
    1276:	ff 92       	push	r15
    1278:	0f 93       	push	r16
    127a:	1f 93       	push	r17
    127c:	cf 93       	push	r28
    127e:	df 93       	push	r29
    1280:	8c 01       	movw	r16, r24
    1282:	2a 01       	movw	r4, r20
    1284:	3b 01       	movw	r6, r22
    1286:	fc 01       	movw	r30, r24
    1288:	c0 81       	ld	r28, Z
    128a:	d1 81       	ldd	r29, Z+1	; 0x01
    128c:	41 15       	cp	r20, r1
    128e:	51 05       	cpc	r21, r1
    1290:	61 05       	cpc	r22, r1
    1292:	71 05       	cpc	r23, r1
    1294:	99 f4       	brne	.+38     	; 0x12bc <create_chain+0x5c>
    1296:	8b 84       	ldd	r8, Y+11	; 0x0b
    1298:	9c 84       	ldd	r9, Y+12	; 0x0c
    129a:	ad 84       	ldd	r10, Y+13	; 0x0d
    129c:	be 84       	ldd	r11, Y+14	; 0x0e
    129e:	81 14       	cp	r8, r1
    12a0:	91 04       	cpc	r9, r1
    12a2:	a1 04       	cpc	r10, r1
    12a4:	b1 04       	cpc	r11, r1
    12a6:	31 f1       	breq	.+76     	; 0x12f4 <create_chain+0x94>
    12a8:	8b 89       	ldd	r24, Y+19	; 0x13
    12aa:	9c 89       	ldd	r25, Y+20	; 0x14
    12ac:	ad 89       	ldd	r26, Y+21	; 0x15
    12ae:	be 89       	ldd	r27, Y+22	; 0x16
    12b0:	88 16       	cp	r8, r24
    12b2:	99 06       	cpc	r9, r25
    12b4:	aa 06       	cpc	r10, r26
    12b6:	bb 06       	cpc	r11, r27
    12b8:	10 f5       	brcc	.+68     	; 0x12fe <create_chain+0x9e>
    12ba:	25 c0       	rjmp	.+74     	; 0x1306 <create_chain+0xa6>
    12bc:	0e 94 68 07 	call	0xed0	; 0xed0 <get_fat>
    12c0:	62 30       	cpi	r22, 0x02	; 2
    12c2:	71 05       	cpc	r23, r1
    12c4:	81 05       	cpc	r24, r1
    12c6:	91 05       	cpc	r25, r1
    12c8:	08 f4       	brcc	.+2      	; 0x12cc <create_chain+0x6c>
    12ca:	f9 c0       	rjmp	.+498    	; 0x14be <create_chain+0x25e>
    12cc:	6f 3f       	cpi	r22, 0xFF	; 255
    12ce:	ff ef       	ldi	r31, 0xFF	; 255
    12d0:	7f 07       	cpc	r23, r31
    12d2:	8f 07       	cpc	r24, r31
    12d4:	9f 07       	cpc	r25, r31
    12d6:	09 f4       	brne	.+2      	; 0x12da <create_chain+0x7a>
    12d8:	03 c1       	rjmp	.+518    	; 0x14e0 <create_chain+0x280>
    12da:	cb 88       	ldd	r12, Y+19	; 0x13
    12dc:	dc 88       	ldd	r13, Y+20	; 0x14
    12de:	ed 88       	ldd	r14, Y+21	; 0x15
    12e0:	fe 88       	ldd	r15, Y+22	; 0x16
    12e2:	6c 15       	cp	r22, r12
    12e4:	7d 05       	cpc	r23, r13
    12e6:	8e 05       	cpc	r24, r14
    12e8:	9f 05       	cpc	r25, r15
    12ea:	08 f4       	brcc	.+2      	; 0x12ee <create_chain+0x8e>
    12ec:	f9 c0       	rjmp	.+498    	; 0x14e0 <create_chain+0x280>
    12ee:	53 01       	movw	r10, r6
    12f0:	42 01       	movw	r8, r4
    12f2:	09 c0       	rjmp	.+18     	; 0x1306 <create_chain+0xa6>
    12f4:	81 2c       	mov	r8, r1
    12f6:	91 2c       	mov	r9, r1
    12f8:	54 01       	movw	r10, r8
    12fa:	83 94       	inc	r8
    12fc:	04 c0       	rjmp	.+8      	; 0x1306 <create_chain+0xa6>
    12fe:	81 2c       	mov	r8, r1
    1300:	91 2c       	mov	r9, r1
    1302:	54 01       	movw	r10, r8
    1304:	83 94       	inc	r8
    1306:	6f 85       	ldd	r22, Y+15	; 0x0f
    1308:	78 89       	ldd	r23, Y+16	; 0x10
    130a:	89 89       	ldd	r24, Y+17	; 0x11
    130c:	9a 89       	ldd	r25, Y+18	; 0x12
    130e:	61 15       	cp	r22, r1
    1310:	71 05       	cpc	r23, r1
    1312:	81 05       	cpc	r24, r1
    1314:	91 05       	cpc	r25, r1
    1316:	09 f4       	brne	.+2      	; 0x131a <create_chain+0xba>
    1318:	e3 c0       	rjmp	.+454    	; 0x14e0 <create_chain+0x280>
    131a:	84 14       	cp	r8, r4
    131c:	95 04       	cpc	r9, r5
    131e:	a6 04       	cpc	r10, r6
    1320:	b7 04       	cpc	r11, r7
    1322:	09 f0       	breq	.+2      	; 0x1326 <create_chain+0xc6>
    1324:	41 c0       	rjmp	.+130    	; 0x13a8 <create_chain+0x148>
    1326:	75 01       	movw	r14, r10
    1328:	64 01       	movw	r12, r8
    132a:	2f ef       	ldi	r18, 0xFF	; 255
    132c:	c2 1a       	sub	r12, r18
    132e:	d2 0a       	sbc	r13, r18
    1330:	e2 0a       	sbc	r14, r18
    1332:	f2 0a       	sbc	r15, r18
    1334:	8b 89       	ldd	r24, Y+19	; 0x13
    1336:	9c 89       	ldd	r25, Y+20	; 0x14
    1338:	ad 89       	ldd	r26, Y+21	; 0x15
    133a:	be 89       	ldd	r27, Y+22	; 0x16
    133c:	c8 16       	cp	r12, r24
    133e:	d9 06       	cpc	r13, r25
    1340:	ea 06       	cpc	r14, r26
    1342:	fb 06       	cpc	r15, r27
    1344:	28 f0       	brcs	.+10     	; 0x1350 <create_chain+0xf0>
    1346:	c1 2c       	mov	r12, r1
    1348:	d1 2c       	mov	r13, r1
    134a:	76 01       	movw	r14, r12
    134c:	68 94       	set
    134e:	c1 f8       	bld	r12, 1
    1350:	b7 01       	movw	r22, r14
    1352:	a6 01       	movw	r20, r12
    1354:	c8 01       	movw	r24, r16
    1356:	0e 94 68 07 	call	0xed0	; 0xed0 <get_fat>
    135a:	61 30       	cpi	r22, 0x01	; 1
    135c:	71 05       	cpc	r23, r1
    135e:	81 05       	cpc	r24, r1
    1360:	91 05       	cpc	r25, r1
    1362:	09 f4       	brne	.+2      	; 0x1366 <create_chain+0x106>
    1364:	bd c0       	rjmp	.+378    	; 0x14e0 <create_chain+0x280>
    1366:	6f 3f       	cpi	r22, 0xFF	; 255
    1368:	ef ef       	ldi	r30, 0xFF	; 255
    136a:	7e 07       	cpc	r23, r30
    136c:	8e 07       	cpc	r24, r30
    136e:	9e 07       	cpc	r25, r30
    1370:	09 f4       	brne	.+2      	; 0x1374 <create_chain+0x114>
    1372:	b6 c0       	rjmp	.+364    	; 0x14e0 <create_chain+0x280>
    1374:	67 2b       	or	r22, r23
    1376:	68 2b       	or	r22, r24
    1378:	69 2b       	or	r22, r25
    137a:	19 f1       	breq	.+70     	; 0x13c2 <create_chain+0x162>
    137c:	8b 85       	ldd	r24, Y+11	; 0x0b
    137e:	9c 85       	ldd	r25, Y+12	; 0x0c
    1380:	ad 85       	ldd	r26, Y+13	; 0x0d
    1382:	be 85       	ldd	r27, Y+14	; 0x0e
    1384:	82 30       	cpi	r24, 0x02	; 2
    1386:	91 05       	cpc	r25, r1
    1388:	a1 05       	cpc	r26, r1
    138a:	b1 05       	cpc	r27, r1
    138c:	88 f0       	brcs	.+34     	; 0x13b0 <create_chain+0x150>
    138e:	4b 89       	ldd	r20, Y+19	; 0x13
    1390:	5c 89       	ldd	r21, Y+20	; 0x14
    1392:	6d 89       	ldd	r22, Y+21	; 0x15
    1394:	7e 89       	ldd	r23, Y+22	; 0x16
    1396:	84 17       	cp	r24, r20
    1398:	95 07       	cpc	r25, r21
    139a:	a6 07       	cpc	r26, r22
    139c:	b7 07       	cpc	r27, r23
    139e:	60 f0       	brcs	.+24     	; 0x13b8 <create_chain+0x158>
    13a0:	c1 2c       	mov	r12, r1
    13a2:	d1 2c       	mov	r13, r1
    13a4:	76 01       	movw	r14, r12
    13a6:	0d c0       	rjmp	.+26     	; 0x13c2 <create_chain+0x162>
    13a8:	c1 2c       	mov	r12, r1
    13aa:	d1 2c       	mov	r13, r1
    13ac:	76 01       	movw	r14, r12
    13ae:	09 c0       	rjmp	.+18     	; 0x13c2 <create_chain+0x162>
    13b0:	c1 2c       	mov	r12, r1
    13b2:	d1 2c       	mov	r13, r1
    13b4:	76 01       	movw	r14, r12
    13b6:	05 c0       	rjmp	.+10     	; 0x13c2 <create_chain+0x162>
    13b8:	4c 01       	movw	r8, r24
    13ba:	5d 01       	movw	r10, r26
    13bc:	c1 2c       	mov	r12, r1
    13be:	d1 2c       	mov	r13, r1
    13c0:	76 01       	movw	r14, r12
    13c2:	c1 14       	cp	r12, r1
    13c4:	d1 04       	cpc	r13, r1
    13c6:	e1 04       	cpc	r14, r1
    13c8:	f1 04       	cpc	r15, r1
    13ca:	c9 f5       	brne	.+114    	; 0x143e <create_chain+0x1de>
    13cc:	75 01       	movw	r14, r10
    13ce:	64 01       	movw	r12, r8
    13d0:	ff ef       	ldi	r31, 0xFF	; 255
    13d2:	cf 1a       	sub	r12, r31
    13d4:	df 0a       	sbc	r13, r31
    13d6:	ef 0a       	sbc	r14, r31
    13d8:	ff 0a       	sbc	r15, r31
    13da:	8b 89       	ldd	r24, Y+19	; 0x13
    13dc:	9c 89       	ldd	r25, Y+20	; 0x14
    13de:	ad 89       	ldd	r26, Y+21	; 0x15
    13e0:	be 89       	ldd	r27, Y+22	; 0x16
    13e2:	c8 16       	cp	r12, r24
    13e4:	d9 06       	cpc	r13, r25
    13e6:	ea 06       	cpc	r14, r26
    13e8:	fb 06       	cpc	r15, r27
    13ea:	60 f0       	brcs	.+24     	; 0x1404 <create_chain+0x1a4>
    13ec:	22 e0       	ldi	r18, 0x02	; 2
    13ee:	82 16       	cp	r8, r18
    13f0:	91 04       	cpc	r9, r1
    13f2:	a1 04       	cpc	r10, r1
    13f4:	b1 04       	cpc	r11, r1
    13f6:	08 f4       	brcc	.+2      	; 0x13fa <create_chain+0x19a>
    13f8:	67 c0       	rjmp	.+206    	; 0x14c8 <create_chain+0x268>
    13fa:	c1 2c       	mov	r12, r1
    13fc:	d1 2c       	mov	r13, r1
    13fe:	76 01       	movw	r14, r12
    1400:	68 94       	set
    1402:	c1 f8       	bld	r12, 1
    1404:	b7 01       	movw	r22, r14
    1406:	a6 01       	movw	r20, r12
    1408:	c8 01       	movw	r24, r16
    140a:	0e 94 68 07 	call	0xed0	; 0xed0 <get_fat>
    140e:	61 15       	cp	r22, r1
    1410:	71 05       	cpc	r23, r1
    1412:	81 05       	cpc	r24, r1
    1414:	91 05       	cpc	r25, r1
    1416:	99 f0       	breq	.+38     	; 0x143e <create_chain+0x1de>
    1418:	61 30       	cpi	r22, 0x01	; 1
    141a:	71 05       	cpc	r23, r1
    141c:	81 05       	cpc	r24, r1
    141e:	91 05       	cpc	r25, r1
    1420:	09 f4       	brne	.+2      	; 0x1424 <create_chain+0x1c4>
    1422:	5e c0       	rjmp	.+188    	; 0x14e0 <create_chain+0x280>
    1424:	6f 3f       	cpi	r22, 0xFF	; 255
    1426:	ef ef       	ldi	r30, 0xFF	; 255
    1428:	7e 07       	cpc	r23, r30
    142a:	8e 07       	cpc	r24, r30
    142c:	9e 07       	cpc	r25, r30
    142e:	09 f4       	brne	.+2      	; 0x1432 <create_chain+0x1d2>
    1430:	57 c0       	rjmp	.+174    	; 0x14e0 <create_chain+0x280>
    1432:	c8 14       	cp	r12, r8
    1434:	d9 04       	cpc	r13, r9
    1436:	ea 04       	cpc	r14, r10
    1438:	fb 04       	cpc	r15, r11
    143a:	51 f6       	brne	.-108    	; 0x13d0 <create_chain+0x170>
    143c:	49 c0       	rjmp	.+146    	; 0x14d0 <create_chain+0x270>
    143e:	0f ef       	ldi	r16, 0xFF	; 255
    1440:	1f ef       	ldi	r17, 0xFF	; 255
    1442:	98 01       	movw	r18, r16
    1444:	b7 01       	movw	r22, r14
    1446:	a6 01       	movw	r20, r12
    1448:	ce 01       	movw	r24, r28
    144a:	0e 94 3f 06 	call	0xc7e	; 0xc7e <put_fat>
    144e:	81 11       	cpse	r24, r1
    1450:	0c c0       	rjmp	.+24     	; 0x146a <create_chain+0x20a>
    1452:	41 14       	cp	r4, r1
    1454:	51 04       	cpc	r5, r1
    1456:	61 04       	cpc	r6, r1
    1458:	71 04       	cpc	r7, r1
    145a:	39 f0       	breq	.+14     	; 0x146a <create_chain+0x20a>
    145c:	97 01       	movw	r18, r14
    145e:	86 01       	movw	r16, r12
    1460:	b3 01       	movw	r22, r6
    1462:	a2 01       	movw	r20, r4
    1464:	ce 01       	movw	r24, r28
    1466:	0e 94 3f 06 	call	0xc7e	; 0xc7e <put_fat>
    146a:	81 11       	cpse	r24, r1
    146c:	22 c0       	rjmp	.+68     	; 0x14b2 <create_chain+0x252>
    146e:	cb 86       	std	Y+11, r12	; 0x0b
    1470:	dc 86       	std	Y+12, r13	; 0x0c
    1472:	ed 86       	std	Y+13, r14	; 0x0d
    1474:	fe 86       	std	Y+14, r15	; 0x0e
    1476:	4f 85       	ldd	r20, Y+15	; 0x0f
    1478:	58 89       	ldd	r21, Y+16	; 0x10
    147a:	69 89       	ldd	r22, Y+17	; 0x11
    147c:	7a 89       	ldd	r23, Y+18	; 0x12
    147e:	8b 89       	ldd	r24, Y+19	; 0x13
    1480:	9c 89       	ldd	r25, Y+20	; 0x14
    1482:	ad 89       	ldd	r26, Y+21	; 0x15
    1484:	be 89       	ldd	r27, Y+22	; 0x16
    1486:	02 97       	sbiw	r24, 0x02	; 2
    1488:	a1 09       	sbc	r26, r1
    148a:	b1 09       	sbc	r27, r1
    148c:	84 17       	cp	r24, r20
    148e:	95 07       	cpc	r25, r21
    1490:	a6 07       	cpc	r26, r22
    1492:	b7 07       	cpc	r27, r23
    1494:	40 f0       	brcs	.+16     	; 0x14a6 <create_chain+0x246>
    1496:	41 50       	subi	r20, 0x01	; 1
    1498:	51 09       	sbc	r21, r1
    149a:	61 09       	sbc	r22, r1
    149c:	71 09       	sbc	r23, r1
    149e:	4f 87       	std	Y+15, r20	; 0x0f
    14a0:	58 8b       	std	Y+16, r21	; 0x10
    14a2:	69 8b       	std	Y+17, r22	; 0x11
    14a4:	7a 8b       	std	Y+18, r23	; 0x12
    14a6:	8c 81       	ldd	r24, Y+4	; 0x04
    14a8:	81 60       	ori	r24, 0x01	; 1
    14aa:	8c 83       	std	Y+4, r24	; 0x04
    14ac:	c7 01       	movw	r24, r14
    14ae:	b6 01       	movw	r22, r12
    14b0:	17 c0       	rjmp	.+46     	; 0x14e0 <create_chain+0x280>
    14b2:	81 30       	cpi	r24, 0x01	; 1
    14b4:	89 f4       	brne	.+34     	; 0x14d8 <create_chain+0x278>
    14b6:	6f ef       	ldi	r22, 0xFF	; 255
    14b8:	7f ef       	ldi	r23, 0xFF	; 255
    14ba:	cb 01       	movw	r24, r22
    14bc:	11 c0       	rjmp	.+34     	; 0x14e0 <create_chain+0x280>
    14be:	61 e0       	ldi	r22, 0x01	; 1
    14c0:	70 e0       	ldi	r23, 0x00	; 0
    14c2:	80 e0       	ldi	r24, 0x00	; 0
    14c4:	90 e0       	ldi	r25, 0x00	; 0
    14c6:	0c c0       	rjmp	.+24     	; 0x14e0 <create_chain+0x280>
    14c8:	60 e0       	ldi	r22, 0x00	; 0
    14ca:	70 e0       	ldi	r23, 0x00	; 0
    14cc:	cb 01       	movw	r24, r22
    14ce:	08 c0       	rjmp	.+16     	; 0x14e0 <create_chain+0x280>
    14d0:	60 e0       	ldi	r22, 0x00	; 0
    14d2:	70 e0       	ldi	r23, 0x00	; 0
    14d4:	cb 01       	movw	r24, r22
    14d6:	04 c0       	rjmp	.+8      	; 0x14e0 <create_chain+0x280>
    14d8:	61 e0       	ldi	r22, 0x01	; 1
    14da:	70 e0       	ldi	r23, 0x00	; 0
    14dc:	80 e0       	ldi	r24, 0x00	; 0
    14de:	90 e0       	ldi	r25, 0x00	; 0
    14e0:	df 91       	pop	r29
    14e2:	cf 91       	pop	r28
    14e4:	1f 91       	pop	r17
    14e6:	0f 91       	pop	r16
    14e8:	ff 90       	pop	r15
    14ea:	ef 90       	pop	r14
    14ec:	df 90       	pop	r13
    14ee:	cf 90       	pop	r12
    14f0:	bf 90       	pop	r11
    14f2:	af 90       	pop	r10
    14f4:	9f 90       	pop	r9
    14f6:	8f 90       	pop	r8
    14f8:	7f 90       	pop	r7
    14fa:	6f 90       	pop	r6
    14fc:	5f 90       	pop	r5
    14fe:	4f 90       	pop	r4
    1500:	08 95       	ret

00001502 <remove_chain>:
    1502:	4f 92       	push	r4
    1504:	5f 92       	push	r5
    1506:	6f 92       	push	r6
    1508:	7f 92       	push	r7
    150a:	af 92       	push	r10
    150c:	bf 92       	push	r11
    150e:	cf 92       	push	r12
    1510:	df 92       	push	r13
    1512:	ef 92       	push	r14
    1514:	ff 92       	push	r15
    1516:	0f 93       	push	r16
    1518:	1f 93       	push	r17
    151a:	cf 93       	push	r28
    151c:	df 93       	push	r29
    151e:	5c 01       	movw	r10, r24
    1520:	6a 01       	movw	r12, r20
    1522:	7b 01       	movw	r14, r22
    1524:	b9 01       	movw	r22, r18
    1526:	a8 01       	movw	r20, r16
    1528:	fc 01       	movw	r30, r24
    152a:	c0 81       	ld	r28, Z
    152c:	d1 81       	ldd	r29, Z+1	; 0x01
    152e:	f2 e0       	ldi	r31, 0x02	; 2
    1530:	cf 16       	cp	r12, r31
    1532:	d1 04       	cpc	r13, r1
    1534:	e1 04       	cpc	r14, r1
    1536:	f1 04       	cpc	r15, r1
    1538:	08 f4       	brcc	.+2      	; 0x153c <remove_chain+0x3a>
    153a:	60 c0       	rjmp	.+192    	; 0x15fc <remove_chain+0xfa>
    153c:	8b 89       	ldd	r24, Y+19	; 0x13
    153e:	9c 89       	ldd	r25, Y+20	; 0x14
    1540:	ad 89       	ldd	r26, Y+21	; 0x15
    1542:	be 89       	ldd	r27, Y+22	; 0x16
    1544:	c8 16       	cp	r12, r24
    1546:	d9 06       	cpc	r13, r25
    1548:	ea 06       	cpc	r14, r26
    154a:	fb 06       	cpc	r15, r27
    154c:	08 f0       	brcs	.+2      	; 0x1550 <remove_chain+0x4e>
    154e:	58 c0       	rjmp	.+176    	; 0x1600 <remove_chain+0xfe>
    1550:	01 2b       	or	r16, r17
    1552:	02 2b       	or	r16, r18
    1554:	03 2b       	or	r16, r19
    1556:	41 f0       	breq	.+16     	; 0x1568 <remove_chain+0x66>
    1558:	0f ef       	ldi	r16, 0xFF	; 255
    155a:	1f ef       	ldi	r17, 0xFF	; 255
    155c:	98 01       	movw	r18, r16
    155e:	ce 01       	movw	r24, r28
    1560:	0e 94 3f 06 	call	0xc7e	; 0xc7e <put_fat>
    1564:	81 11       	cpse	r24, r1
    1566:	53 c0       	rjmp	.+166    	; 0x160e <remove_chain+0x10c>
    1568:	b7 01       	movw	r22, r14
    156a:	a6 01       	movw	r20, r12
    156c:	c5 01       	movw	r24, r10
    156e:	0e 94 68 07 	call	0xed0	; 0xed0 <get_fat>
    1572:	2b 01       	movw	r4, r22
    1574:	3c 01       	movw	r6, r24
    1576:	61 15       	cp	r22, r1
    1578:	71 05       	cpc	r23, r1
    157a:	81 05       	cpc	r24, r1
    157c:	91 05       	cpc	r25, r1
    157e:	09 f4       	brne	.+2      	; 0x1582 <remove_chain+0x80>
    1580:	41 c0       	rjmp	.+130    	; 0x1604 <remove_chain+0x102>
    1582:	61 30       	cpi	r22, 0x01	; 1
    1584:	71 05       	cpc	r23, r1
    1586:	81 05       	cpc	r24, r1
    1588:	91 05       	cpc	r25, r1
    158a:	f1 f1       	breq	.+124    	; 0x1608 <remove_chain+0x106>
    158c:	8f ef       	ldi	r24, 0xFF	; 255
    158e:	48 16       	cp	r4, r24
    1590:	58 06       	cpc	r5, r24
    1592:	68 06       	cpc	r6, r24
    1594:	78 06       	cpc	r7, r24
    1596:	d1 f1       	breq	.+116    	; 0x160c <remove_chain+0x10a>
    1598:	00 e0       	ldi	r16, 0x00	; 0
    159a:	10 e0       	ldi	r17, 0x00	; 0
    159c:	98 01       	movw	r18, r16
    159e:	b7 01       	movw	r22, r14
    15a0:	a6 01       	movw	r20, r12
    15a2:	ce 01       	movw	r24, r28
    15a4:	0e 94 3f 06 	call	0xc7e	; 0xc7e <put_fat>
    15a8:	81 11       	cpse	r24, r1
    15aa:	31 c0       	rjmp	.+98     	; 0x160e <remove_chain+0x10c>
    15ac:	8f 85       	ldd	r24, Y+15	; 0x0f
    15ae:	98 89       	ldd	r25, Y+16	; 0x10
    15b0:	a9 89       	ldd	r26, Y+17	; 0x11
    15b2:	ba 89       	ldd	r27, Y+18	; 0x12
    15b4:	4b 89       	ldd	r20, Y+19	; 0x13
    15b6:	5c 89       	ldd	r21, Y+20	; 0x14
    15b8:	6d 89       	ldd	r22, Y+21	; 0x15
    15ba:	7e 89       	ldd	r23, Y+22	; 0x16
    15bc:	6a 01       	movw	r12, r20
    15be:	7b 01       	movw	r14, r22
    15c0:	e2 e0       	ldi	r30, 0x02	; 2
    15c2:	ce 1a       	sub	r12, r30
    15c4:	d1 08       	sbc	r13, r1
    15c6:	e1 08       	sbc	r14, r1
    15c8:	f1 08       	sbc	r15, r1
    15ca:	8c 15       	cp	r24, r12
    15cc:	9d 05       	cpc	r25, r13
    15ce:	ae 05       	cpc	r26, r14
    15d0:	bf 05       	cpc	r27, r15
    15d2:	50 f4       	brcc	.+20     	; 0x15e8 <remove_chain+0xe6>
    15d4:	01 96       	adiw	r24, 0x01	; 1
    15d6:	a1 1d       	adc	r26, r1
    15d8:	b1 1d       	adc	r27, r1
    15da:	8f 87       	std	Y+15, r24	; 0x0f
    15dc:	98 8b       	std	Y+16, r25	; 0x10
    15de:	a9 8b       	std	Y+17, r26	; 0x11
    15e0:	ba 8b       	std	Y+18, r27	; 0x12
    15e2:	8c 81       	ldd	r24, Y+4	; 0x04
    15e4:	81 60       	ori	r24, 0x01	; 1
    15e6:	8c 83       	std	Y+4, r24	; 0x04
    15e8:	73 01       	movw	r14, r6
    15ea:	62 01       	movw	r12, r4
    15ec:	44 16       	cp	r4, r20
    15ee:	55 06       	cpc	r5, r21
    15f0:	66 06       	cpc	r6, r22
    15f2:	77 06       	cpc	r7, r23
    15f4:	08 f4       	brcc	.+2      	; 0x15f8 <remove_chain+0xf6>
    15f6:	b8 cf       	rjmp	.-144    	; 0x1568 <remove_chain+0x66>
    15f8:	80 e0       	ldi	r24, 0x00	; 0
    15fa:	09 c0       	rjmp	.+18     	; 0x160e <remove_chain+0x10c>
    15fc:	82 e0       	ldi	r24, 0x02	; 2
    15fe:	07 c0       	rjmp	.+14     	; 0x160e <remove_chain+0x10c>
    1600:	82 e0       	ldi	r24, 0x02	; 2
    1602:	05 c0       	rjmp	.+10     	; 0x160e <remove_chain+0x10c>
    1604:	80 e0       	ldi	r24, 0x00	; 0
    1606:	03 c0       	rjmp	.+6      	; 0x160e <remove_chain+0x10c>
    1608:	82 e0       	ldi	r24, 0x02	; 2
    160a:	01 c0       	rjmp	.+2      	; 0x160e <remove_chain+0x10c>
    160c:	81 e0       	ldi	r24, 0x01	; 1
    160e:	df 91       	pop	r29
    1610:	cf 91       	pop	r28
    1612:	1f 91       	pop	r17
    1614:	0f 91       	pop	r16
    1616:	ff 90       	pop	r15
    1618:	ef 90       	pop	r14
    161a:	df 90       	pop	r13
    161c:	cf 90       	pop	r12
    161e:	bf 90       	pop	r11
    1620:	af 90       	pop	r10
    1622:	7f 90       	pop	r7
    1624:	6f 90       	pop	r6
    1626:	5f 90       	pop	r5
    1628:	4f 90       	pop	r4
    162a:	08 95       	ret

0000162c <dir_clear>:
    162c:	8f 92       	push	r8
    162e:	9f 92       	push	r9
    1630:	af 92       	push	r10
    1632:	bf 92       	push	r11
    1634:	cf 92       	push	r12
    1636:	df 92       	push	r13
    1638:	ef 92       	push	r14
    163a:	ff 92       	push	r15
    163c:	0f 93       	push	r16
    163e:	1f 93       	push	r17
    1640:	cf 93       	push	r28
    1642:	df 93       	push	r29
    1644:	7c 01       	movw	r14, r24
    1646:	4a 01       	movw	r8, r20
    1648:	5b 01       	movw	r10, r22
    164a:	0e 94 14 02 	call	0x428	; 0x428 <sync_window>
    164e:	81 11       	cpse	r24, r1
    1650:	39 c0       	rjmp	.+114    	; 0x16c4 <dir_clear+0x98>
    1652:	b5 01       	movw	r22, r10
    1654:	a4 01       	movw	r20, r8
    1656:	c7 01       	movw	r24, r14
    1658:	0e 94 27 01 	call	0x24e	; 0x24e <clst2sect>
    165c:	4b 01       	movw	r8, r22
    165e:	5c 01       	movw	r10, r24
    1660:	f7 01       	movw	r30, r14
    1662:	63 a7       	std	Z+43, r22	; 0x2b
    1664:	74 a7       	std	Z+44, r23	; 0x2c
    1666:	85 a7       	std	Z+45, r24	; 0x2d
    1668:	96 a7       	std	Z+46, r25	; 0x2e
    166a:	67 01       	movw	r12, r14
    166c:	ff e2       	ldi	r31, 0x2F	; 47
    166e:	cf 0e       	add	r12, r31
    1670:	d1 1c       	adc	r13, r1
    1672:	80 e0       	ldi	r24, 0x00	; 0
    1674:	92 e0       	ldi	r25, 0x02	; 2
    1676:	f6 01       	movw	r30, r12
    1678:	9c 01       	movw	r18, r24
    167a:	11 92       	st	Z+, r1
    167c:	21 50       	subi	r18, 0x01	; 1
    167e:	30 40       	sbci	r19, 0x00	; 0
    1680:	e1 f7       	brne	.-8      	; 0x167a <dir_clear+0x4e>
    1682:	c0 e0       	ldi	r28, 0x00	; 0
    1684:	d0 e0       	ldi	r29, 0x00	; 0
    1686:	01 c0       	rjmp	.+2      	; 0x168a <dir_clear+0x5e>
    1688:	21 96       	adiw	r28, 0x01	; 1
    168a:	f7 01       	movw	r30, r14
    168c:	81 85       	ldd	r24, Z+9	; 0x09
    168e:	92 85       	ldd	r25, Z+10	; 0x0a
    1690:	c8 17       	cp	r28, r24
    1692:	d9 07       	cpc	r29, r25
    1694:	70 f4       	brcc	.+28     	; 0x16b2 <dir_clear+0x86>
    1696:	01 e0       	ldi	r16, 0x01	; 1
    1698:	10 e0       	ldi	r17, 0x00	; 0
    169a:	a5 01       	movw	r20, r10
    169c:	94 01       	movw	r18, r8
    169e:	2c 0f       	add	r18, r28
    16a0:	3d 1f       	adc	r19, r29
    16a2:	41 1d       	adc	r20, r1
    16a4:	51 1d       	adc	r21, r1
    16a6:	b6 01       	movw	r22, r12
    16a8:	81 81       	ldd	r24, Z+1	; 0x01
    16aa:	0e 94 b6 00 	call	0x16c	; 0x16c <disk_write>
    16ae:	88 23       	and	r24, r24
    16b0:	59 f3       	breq	.-42     	; 0x1688 <dir_clear+0x5c>
    16b2:	f7 01       	movw	r30, r14
    16b4:	21 85       	ldd	r18, Z+9	; 0x09
    16b6:	32 85       	ldd	r19, Z+10	; 0x0a
    16b8:	81 e0       	ldi	r24, 0x01	; 1
    16ba:	c2 17       	cp	r28, r18
    16bc:	d3 07       	cpc	r29, r19
    16be:	19 f4       	brne	.+6      	; 0x16c6 <dir_clear+0x9a>
    16c0:	80 e0       	ldi	r24, 0x00	; 0
    16c2:	01 c0       	rjmp	.+2      	; 0x16c6 <dir_clear+0x9a>
    16c4:	81 e0       	ldi	r24, 0x01	; 1
    16c6:	df 91       	pop	r29
    16c8:	cf 91       	pop	r28
    16ca:	1f 91       	pop	r17
    16cc:	0f 91       	pop	r16
    16ce:	ff 90       	pop	r15
    16d0:	ef 90       	pop	r14
    16d2:	df 90       	pop	r13
    16d4:	cf 90       	pop	r12
    16d6:	bf 90       	pop	r11
    16d8:	af 90       	pop	r10
    16da:	9f 90       	pop	r9
    16dc:	8f 90       	pop	r8
    16de:	08 95       	ret

000016e0 <dir_next>:
    16e0:	4f 92       	push	r4
    16e2:	5f 92       	push	r5
    16e4:	6f 92       	push	r6
    16e6:	7f 92       	push	r7
    16e8:	af 92       	push	r10
    16ea:	bf 92       	push	r11
    16ec:	cf 92       	push	r12
    16ee:	df 92       	push	r13
    16f0:	ef 92       	push	r14
    16f2:	ff 92       	push	r15
    16f4:	0f 93       	push	r16
    16f6:	1f 93       	push	r17
    16f8:	cf 93       	push	r28
    16fa:	df 93       	push	r29
    16fc:	fc 01       	movw	r30, r24
    16fe:	c0 81       	ld	r28, Z
    1700:	d1 81       	ldd	r29, Z+1	; 0x01
    1702:	c6 84       	ldd	r12, Z+14	; 0x0e
    1704:	d7 84       	ldd	r13, Z+15	; 0x0f
    1706:	e0 88       	ldd	r14, Z+16	; 0x10
    1708:	f1 88       	ldd	r15, Z+17	; 0x11
    170a:	80 e2       	ldi	r24, 0x20	; 32
    170c:	c8 0e       	add	r12, r24
    170e:	d1 1c       	adc	r13, r1
    1710:	e1 1c       	adc	r14, r1
    1712:	f1 1c       	adc	r15, r1
    1714:	c1 14       	cp	r12, r1
    1716:	d1 04       	cpc	r13, r1
    1718:	80 e2       	ldi	r24, 0x20	; 32
    171a:	e8 06       	cpc	r14, r24
    171c:	f1 04       	cpc	r15, r1
    171e:	20 f0       	brcs	.+8      	; 0x1728 <dir_next+0x48>
    1720:	16 8a       	std	Z+22, r1	; 0x16
    1722:	17 8a       	std	Z+23, r1	; 0x17
    1724:	10 8e       	std	Z+24, r1	; 0x18
    1726:	11 8e       	std	Z+25, r1	; 0x19
    1728:	86 89       	ldd	r24, Z+22	; 0x16
    172a:	97 89       	ldd	r25, Z+23	; 0x17
    172c:	a0 8d       	ldd	r26, Z+24	; 0x18
    172e:	b1 8d       	ldd	r27, Z+25	; 0x19
    1730:	00 97       	sbiw	r24, 0x00	; 0
    1732:	a1 05       	cpc	r26, r1
    1734:	b1 05       	cpc	r27, r1
    1736:	09 f4       	brne	.+2      	; 0x173a <dir_next+0x5a>
    1738:	b3 c0       	rjmp	.+358    	; 0x18a0 <dir_next+0x1c0>
    173a:	8b 01       	movw	r16, r22
    173c:	5f 01       	movw	r10, r30
    173e:	b7 01       	movw	r22, r14
    1740:	a6 01       	movw	r20, r12
    1742:	51 70       	andi	r21, 0x01	; 1
    1744:	66 27       	eor	r22, r22
    1746:	77 27       	eor	r23, r23
    1748:	45 2b       	or	r20, r21
    174a:	46 2b       	or	r20, r22
    174c:	47 2b       	or	r20, r23
    174e:	09 f0       	breq	.+2      	; 0x1752 <dir_next+0x72>
    1750:	98 c0       	rjmp	.+304    	; 0x1882 <dir_next+0x1a2>
    1752:	01 96       	adiw	r24, 0x01	; 1
    1754:	a1 1d       	adc	r26, r1
    1756:	b1 1d       	adc	r27, r1
    1758:	86 8b       	std	Z+22, r24	; 0x16
    175a:	97 8b       	std	Z+23, r25	; 0x17
    175c:	a0 8f       	std	Z+24, r26	; 0x18
    175e:	b1 8f       	std	Z+25, r27	; 0x19
    1760:	42 89       	ldd	r20, Z+18	; 0x12
    1762:	53 89       	ldd	r21, Z+19	; 0x13
    1764:	64 89       	ldd	r22, Z+20	; 0x14
    1766:	75 89       	ldd	r23, Z+21	; 0x15
    1768:	41 15       	cp	r20, r1
    176a:	51 05       	cpc	r21, r1
    176c:	61 05       	cpc	r22, r1
    176e:	71 05       	cpc	r23, r1
    1770:	d1 f4       	brne	.+52     	; 0x17a6 <dir_next+0xc6>
    1772:	8f 81       	ldd	r24, Y+7	; 0x07
    1774:	98 85       	ldd	r25, Y+8	; 0x08
    1776:	a0 e0       	ldi	r26, 0x00	; 0
    1778:	b0 e0       	ldi	r27, 0x00	; 0
    177a:	b7 01       	movw	r22, r14
    177c:	a6 01       	movw	r20, r12
    177e:	68 94       	set
    1780:	14 f8       	bld	r1, 4
    1782:	76 95       	lsr	r23
    1784:	67 95       	ror	r22
    1786:	57 95       	ror	r21
    1788:	47 95       	ror	r20
    178a:	16 94       	lsr	r1
    178c:	d1 f7       	brne	.-12     	; 0x1782 <dir_next+0xa2>
    178e:	48 17       	cp	r20, r24
    1790:	59 07       	cpc	r21, r25
    1792:	6a 07       	cpc	r22, r26
    1794:	7b 07       	cpc	r23, r27
    1796:	08 f4       	brcc	.+2      	; 0x179a <dir_next+0xba>
    1798:	74 c0       	rjmp	.+232    	; 0x1882 <dir_next+0x1a2>
    179a:	16 8a       	std	Z+22, r1	; 0x16
    179c:	17 8a       	std	Z+23, r1	; 0x17
    179e:	10 8e       	std	Z+24, r1	; 0x18
    17a0:	11 8e       	std	Z+25, r1	; 0x19
    17a2:	84 e0       	ldi	r24, 0x04	; 4
    17a4:	8a c0       	rjmp	.+276    	; 0x18ba <dir_next+0x1da>
    17a6:	89 85       	ldd	r24, Y+9	; 0x09
    17a8:	9a 85       	ldd	r25, Y+10	; 0x0a
    17aa:	01 97       	sbiw	r24, 0x01	; 1
    17ac:	2c 01       	movw	r4, r24
    17ae:	61 2c       	mov	r6, r1
    17b0:	71 2c       	mov	r7, r1
    17b2:	d7 01       	movw	r26, r14
    17b4:	c6 01       	movw	r24, r12
    17b6:	07 2e       	mov	r0, r23
    17b8:	79 e0       	ldi	r23, 0x09	; 9
    17ba:	b6 95       	lsr	r27
    17bc:	a7 95       	ror	r26
    17be:	97 95       	ror	r25
    17c0:	87 95       	ror	r24
    17c2:	7a 95       	dec	r23
    17c4:	d1 f7       	brne	.-12     	; 0x17ba <dir_next+0xda>
    17c6:	70 2d       	mov	r23, r0
    17c8:	84 21       	and	r24, r4
    17ca:	95 21       	and	r25, r5
    17cc:	a6 21       	and	r26, r6
    17ce:	b7 21       	and	r27, r7
    17d0:	89 2b       	or	r24, r25
    17d2:	8a 2b       	or	r24, r26
    17d4:	8b 2b       	or	r24, r27
    17d6:	09 f0       	breq	.+2      	; 0x17da <dir_next+0xfa>
    17d8:	54 c0       	rjmp	.+168    	; 0x1882 <dir_next+0x1a2>
    17da:	cf 01       	movw	r24, r30
    17dc:	0e 94 68 07 	call	0xed0	; 0xed0 <get_fat>
    17e0:	2b 01       	movw	r4, r22
    17e2:	3c 01       	movw	r6, r24
    17e4:	62 30       	cpi	r22, 0x02	; 2
    17e6:	71 05       	cpc	r23, r1
    17e8:	81 05       	cpc	r24, r1
    17ea:	91 05       	cpc	r25, r1
    17ec:	08 f4       	brcc	.+2      	; 0x17f0 <dir_next+0x110>
    17ee:	5a c0       	rjmp	.+180    	; 0x18a4 <dir_next+0x1c4>
    17f0:	8f ef       	ldi	r24, 0xFF	; 255
    17f2:	48 16       	cp	r4, r24
    17f4:	58 06       	cpc	r5, r24
    17f6:	68 06       	cpc	r6, r24
    17f8:	78 06       	cpc	r7, r24
    17fa:	09 f4       	brne	.+2      	; 0x17fe <dir_next+0x11e>
    17fc:	55 c0       	rjmp	.+170    	; 0x18a8 <dir_next+0x1c8>
    17fe:	8b 89       	ldd	r24, Y+19	; 0x13
    1800:	9c 89       	ldd	r25, Y+20	; 0x14
    1802:	ad 89       	ldd	r26, Y+21	; 0x15
    1804:	be 89       	ldd	r27, Y+22	; 0x16
    1806:	48 16       	cp	r4, r24
    1808:	59 06       	cpc	r5, r25
    180a:	6a 06       	cpc	r6, r26
    180c:	7b 06       	cpc	r7, r27
    180e:	50 f1       	brcs	.+84     	; 0x1864 <dir_next+0x184>
    1810:	01 2b       	or	r16, r17
    1812:	39 f4       	brne	.+14     	; 0x1822 <dir_next+0x142>
    1814:	f5 01       	movw	r30, r10
    1816:	16 8a       	std	Z+22, r1	; 0x16
    1818:	17 8a       	std	Z+23, r1	; 0x17
    181a:	10 8e       	std	Z+24, r1	; 0x18
    181c:	11 8e       	std	Z+25, r1	; 0x19
    181e:	84 e0       	ldi	r24, 0x04	; 4
    1820:	4c c0       	rjmp	.+152    	; 0x18ba <dir_next+0x1da>
    1822:	f5 01       	movw	r30, r10
    1824:	42 89       	ldd	r20, Z+18	; 0x12
    1826:	53 89       	ldd	r21, Z+19	; 0x13
    1828:	64 89       	ldd	r22, Z+20	; 0x14
    182a:	75 89       	ldd	r23, Z+21	; 0x15
    182c:	c5 01       	movw	r24, r10
    182e:	0e 94 30 09 	call	0x1260	; 0x1260 <create_chain>
    1832:	2b 01       	movw	r4, r22
    1834:	3c 01       	movw	r6, r24
    1836:	61 15       	cp	r22, r1
    1838:	71 05       	cpc	r23, r1
    183a:	81 05       	cpc	r24, r1
    183c:	91 05       	cpc	r25, r1
    183e:	b1 f1       	breq	.+108    	; 0x18ac <dir_next+0x1cc>
    1840:	61 30       	cpi	r22, 0x01	; 1
    1842:	71 05       	cpc	r23, r1
    1844:	81 05       	cpc	r24, r1
    1846:	91 05       	cpc	r25, r1
    1848:	99 f1       	breq	.+102    	; 0x18b0 <dir_next+0x1d0>
    184a:	8f ef       	ldi	r24, 0xFF	; 255
    184c:	48 16       	cp	r4, r24
    184e:	58 06       	cpc	r5, r24
    1850:	68 06       	cpc	r6, r24
    1852:	78 06       	cpc	r7, r24
    1854:	79 f1       	breq	.+94     	; 0x18b4 <dir_next+0x1d4>
    1856:	b3 01       	movw	r22, r6
    1858:	a2 01       	movw	r20, r4
    185a:	ce 01       	movw	r24, r28
    185c:	0e 94 16 0b 	call	0x162c	; 0x162c <dir_clear>
    1860:	81 11       	cpse	r24, r1
    1862:	2a c0       	rjmp	.+84     	; 0x18b8 <dir_next+0x1d8>
    1864:	f5 01       	movw	r30, r10
    1866:	42 8a       	std	Z+18, r4	; 0x12
    1868:	53 8a       	std	Z+19, r5	; 0x13
    186a:	64 8a       	std	Z+20, r6	; 0x14
    186c:	75 8a       	std	Z+21, r7	; 0x15
    186e:	b3 01       	movw	r22, r6
    1870:	a2 01       	movw	r20, r4
    1872:	ce 01       	movw	r24, r28
    1874:	0e 94 27 01 	call	0x24e	; 0x24e <clst2sect>
    1878:	f5 01       	movw	r30, r10
    187a:	66 8b       	std	Z+22, r22	; 0x16
    187c:	77 8b       	std	Z+23, r23	; 0x17
    187e:	80 8f       	std	Z+24, r24	; 0x18
    1880:	91 8f       	std	Z+25, r25	; 0x19
    1882:	f5 01       	movw	r30, r10
    1884:	c6 86       	std	Z+14, r12	; 0x0e
    1886:	d7 86       	std	Z+15, r13	; 0x0f
    1888:	e0 8a       	std	Z+16, r14	; 0x10
    188a:	f1 8a       	std	Z+17, r15	; 0x11
    188c:	af 96       	adiw	r28, 0x2f	; 47
    188e:	f1 e0       	ldi	r31, 0x01	; 1
    1890:	df 22       	and	r13, r31
    1892:	cc 0e       	add	r12, r28
    1894:	dd 1e       	adc	r13, r29
    1896:	f5 01       	movw	r30, r10
    1898:	c2 8e       	std	Z+26, r12	; 0x1a
    189a:	d3 8e       	std	Z+27, r13	; 0x1b
    189c:	80 e0       	ldi	r24, 0x00	; 0
    189e:	0d c0       	rjmp	.+26     	; 0x18ba <dir_next+0x1da>
    18a0:	84 e0       	ldi	r24, 0x04	; 4
    18a2:	0b c0       	rjmp	.+22     	; 0x18ba <dir_next+0x1da>
    18a4:	82 e0       	ldi	r24, 0x02	; 2
    18a6:	09 c0       	rjmp	.+18     	; 0x18ba <dir_next+0x1da>
    18a8:	81 e0       	ldi	r24, 0x01	; 1
    18aa:	07 c0       	rjmp	.+14     	; 0x18ba <dir_next+0x1da>
    18ac:	87 e0       	ldi	r24, 0x07	; 7
    18ae:	05 c0       	rjmp	.+10     	; 0x18ba <dir_next+0x1da>
    18b0:	82 e0       	ldi	r24, 0x02	; 2
    18b2:	03 c0       	rjmp	.+6      	; 0x18ba <dir_next+0x1da>
    18b4:	81 e0       	ldi	r24, 0x01	; 1
    18b6:	01 c0       	rjmp	.+2      	; 0x18ba <dir_next+0x1da>
    18b8:	81 e0       	ldi	r24, 0x01	; 1
    18ba:	df 91       	pop	r29
    18bc:	cf 91       	pop	r28
    18be:	1f 91       	pop	r17
    18c0:	0f 91       	pop	r16
    18c2:	ff 90       	pop	r15
    18c4:	ef 90       	pop	r14
    18c6:	df 90       	pop	r13
    18c8:	cf 90       	pop	r12
    18ca:	bf 90       	pop	r11
    18cc:	af 90       	pop	r10
    18ce:	7f 90       	pop	r7
    18d0:	6f 90       	pop	r6
    18d2:	5f 90       	pop	r5
    18d4:	4f 90       	pop	r4
    18d6:	08 95       	ret

000018d8 <dir_find>:
    18d8:	ef 92       	push	r14
    18da:	ff 92       	push	r15
    18dc:	1f 93       	push	r17
    18de:	cf 93       	push	r28
    18e0:	df 93       	push	r29
    18e2:	ec 01       	movw	r28, r24
    18e4:	e8 80       	ld	r14, Y
    18e6:	f9 80       	ldd	r15, Y+1	; 0x01
    18e8:	40 e0       	ldi	r20, 0x00	; 0
    18ea:	50 e0       	ldi	r21, 0x00	; 0
    18ec:	ba 01       	movw	r22, r20
    18ee:	0e 94 4a 08 	call	0x1094	; 0x1094 <dir_sdi>
    18f2:	81 11       	cpse	r24, r1
    18f4:	2b c0       	rjmp	.+86     	; 0x194c <dir_find+0x74>
    18f6:	4e 89       	ldd	r20, Y+22	; 0x16
    18f8:	5f 89       	ldd	r21, Y+23	; 0x17
    18fa:	68 8d       	ldd	r22, Y+24	; 0x18
    18fc:	79 8d       	ldd	r23, Y+25	; 0x19
    18fe:	c7 01       	movw	r24, r14
    1900:	0e 94 6e 02 	call	0x4dc	; 0x4dc <move_window>
    1904:	18 2f       	mov	r17, r24
    1906:	81 11       	cpse	r24, r1
    1908:	1d c0       	rjmp	.+58     	; 0x1944 <dir_find+0x6c>
    190a:	ea 8d       	ldd	r30, Y+26	; 0x1a
    190c:	fb 8d       	ldd	r31, Y+27	; 0x1b
    190e:	80 81       	ld	r24, Z
    1910:	88 23       	and	r24, r24
    1912:	c9 f0       	breq	.+50     	; 0x1946 <dir_find+0x6e>
    1914:	83 85       	ldd	r24, Z+11	; 0x0b
    1916:	8f 73       	andi	r24, 0x3F	; 63
    1918:	8c 83       	std	Y+4, r24	; 0x04
    191a:	83 85       	ldd	r24, Z+11	; 0x0b
    191c:	83 fd       	sbrc	r24, 3
    191e:	0a c0       	rjmp	.+20     	; 0x1934 <dir_find+0x5c>
    1920:	4b e0       	ldi	r20, 0x0B	; 11
    1922:	50 e0       	ldi	r21, 0x00	; 0
    1924:	be 01       	movw	r22, r28
    1926:	64 5e       	subi	r22, 0xE4	; 228
    1928:	7f 4f       	sbci	r23, 0xFF	; 255
    192a:	cf 01       	movw	r24, r30
    192c:	0e 94 1e 19 	call	0x323c	; 0x323c <memcmp>
    1930:	89 2b       	or	r24, r25
    1932:	59 f0       	breq	.+22     	; 0x194a <dir_find+0x72>
    1934:	60 e0       	ldi	r22, 0x00	; 0
    1936:	70 e0       	ldi	r23, 0x00	; 0
    1938:	ce 01       	movw	r24, r28
    193a:	0e 94 70 0b 	call	0x16e0	; 0x16e0 <dir_next>
    193e:	88 23       	and	r24, r24
    1940:	d1 f2       	breq	.-76     	; 0x18f6 <dir_find+0x1e>
    1942:	04 c0       	rjmp	.+8      	; 0x194c <dir_find+0x74>
    1944:	03 c0       	rjmp	.+6      	; 0x194c <dir_find+0x74>
    1946:	84 e0       	ldi	r24, 0x04	; 4
    1948:	01 c0       	rjmp	.+2      	; 0x194c <dir_find+0x74>
    194a:	81 2f       	mov	r24, r17
    194c:	df 91       	pop	r29
    194e:	cf 91       	pop	r28
    1950:	1f 91       	pop	r17
    1952:	ff 90       	pop	r15
    1954:	ef 90       	pop	r14
    1956:	08 95       	ret

00001958 <dir_alloc>:
    1958:	cf 92       	push	r12
    195a:	df 92       	push	r13
    195c:	ef 92       	push	r14
    195e:	ff 92       	push	r15
    1960:	0f 93       	push	r16
    1962:	1f 93       	push	r17
    1964:	cf 93       	push	r28
    1966:	df 93       	push	r29
    1968:	ec 01       	movw	r28, r24
    196a:	6b 01       	movw	r12, r22
    196c:	e8 80       	ld	r14, Y
    196e:	f9 80       	ldd	r15, Y+1	; 0x01
    1970:	40 e0       	ldi	r20, 0x00	; 0
    1972:	50 e0       	ldi	r21, 0x00	; 0
    1974:	ba 01       	movw	r22, r20
    1976:	0e 94 4a 08 	call	0x1094	; 0x1094 <dir_sdi>
    197a:	81 11       	cpse	r24, r1
    197c:	21 c0       	rjmp	.+66     	; 0x19c0 <dir_alloc+0x68>
    197e:	00 e0       	ldi	r16, 0x00	; 0
    1980:	10 e0       	ldi	r17, 0x00	; 0
    1982:	4e 89       	ldd	r20, Y+22	; 0x16
    1984:	5f 89       	ldd	r21, Y+23	; 0x17
    1986:	68 8d       	ldd	r22, Y+24	; 0x18
    1988:	79 8d       	ldd	r23, Y+25	; 0x19
    198a:	c7 01       	movw	r24, r14
    198c:	0e 94 6e 02 	call	0x4dc	; 0x4dc <move_window>
    1990:	81 11       	cpse	r24, r1
    1992:	16 c0       	rjmp	.+44     	; 0x19c0 <dir_alloc+0x68>
    1994:	ea 8d       	ldd	r30, Y+26	; 0x1a
    1996:	fb 8d       	ldd	r31, Y+27	; 0x1b
    1998:	90 81       	ld	r25, Z
    199a:	95 3e       	cpi	r25, 0xE5	; 229
    199c:	11 f0       	breq	.+4      	; 0x19a2 <dir_alloc+0x4a>
    199e:	91 11       	cpse	r25, r1
    19a0:	06 c0       	rjmp	.+12     	; 0x19ae <dir_alloc+0x56>
    19a2:	0f 5f       	subi	r16, 0xFF	; 255
    19a4:	1f 4f       	sbci	r17, 0xFF	; 255
    19a6:	0c 15       	cp	r16, r12
    19a8:	1d 05       	cpc	r17, r13
    19aa:	19 f4       	brne	.+6      	; 0x19b2 <dir_alloc+0x5a>
    19ac:	09 c0       	rjmp	.+18     	; 0x19c0 <dir_alloc+0x68>
    19ae:	00 e0       	ldi	r16, 0x00	; 0
    19b0:	10 e0       	ldi	r17, 0x00	; 0
    19b2:	61 e0       	ldi	r22, 0x01	; 1
    19b4:	70 e0       	ldi	r23, 0x00	; 0
    19b6:	ce 01       	movw	r24, r28
    19b8:	0e 94 70 0b 	call	0x16e0	; 0x16e0 <dir_next>
    19bc:	88 23       	and	r24, r24
    19be:	09 f3       	breq	.-62     	; 0x1982 <dir_alloc+0x2a>
    19c0:	84 30       	cpi	r24, 0x04	; 4
    19c2:	09 f4       	brne	.+2      	; 0x19c6 <dir_alloc+0x6e>
    19c4:	87 e0       	ldi	r24, 0x07	; 7
    19c6:	df 91       	pop	r29
    19c8:	cf 91       	pop	r28
    19ca:	1f 91       	pop	r17
    19cc:	0f 91       	pop	r16
    19ce:	ff 90       	pop	r15
    19d0:	ef 90       	pop	r14
    19d2:	df 90       	pop	r13
    19d4:	cf 90       	pop	r12
    19d6:	08 95       	ret

000019d8 <create_name>:
    19d8:	3f 92       	push	r3
    19da:	4f 92       	push	r4
    19dc:	5f 92       	push	r5
    19de:	6f 92       	push	r6
    19e0:	7f 92       	push	r7
    19e2:	8f 92       	push	r8
    19e4:	9f 92       	push	r9
    19e6:	af 92       	push	r10
    19e8:	bf 92       	push	r11
    19ea:	cf 92       	push	r12
    19ec:	df 92       	push	r13
    19ee:	ef 92       	push	r14
    19f0:	ff 92       	push	r15
    19f2:	0f 93       	push	r16
    19f4:	1f 93       	push	r17
    19f6:	cf 93       	push	r28
    19f8:	df 93       	push	r29
    19fa:	3c 01       	movw	r6, r24
    19fc:	2b 01       	movw	r4, r22
    19fe:	fb 01       	movw	r30, r22
    1a00:	c0 80       	ld	r12, Z
    1a02:	d1 80       	ldd	r13, Z+1	; 0x01
    1a04:	5c 01       	movw	r10, r24
    1a06:	fc e1       	ldi	r31, 0x1C	; 28
    1a08:	af 0e       	add	r10, r31
    1a0a:	b1 1c       	adc	r11, r1
    1a0c:	4b e0       	ldi	r20, 0x0B	; 11
    1a0e:	50 e0       	ldi	r21, 0x00	; 0
    1a10:	60 e2       	ldi	r22, 0x20	; 32
    1a12:	70 e0       	ldi	r23, 0x00	; 0
    1a14:	c5 01       	movw	r24, r10
    1a16:	0e 94 34 19 	call	0x3268	; 0x3268 <memset>
    1a1a:	e1 2c       	mov	r14, r1
    1a1c:	f1 2c       	mov	r15, r1
    1a1e:	00 e0       	ldi	r16, 0x00	; 0
    1a20:	10 e0       	ldi	r17, 0x00	; 0
    1a22:	68 94       	set
    1a24:	88 24       	eor	r8, r8
    1a26:	83 f8       	bld	r8, 3
    1a28:	91 2c       	mov	r9, r1
    1a2a:	e8 01       	movw	r28, r16
    1a2c:	21 96       	adiw	r28, 0x01	; 1
    1a2e:	f6 01       	movw	r30, r12
    1a30:	e0 0f       	add	r30, r16
    1a32:	f1 1f       	adc	r31, r17
    1a34:	30 80       	ld	r3, Z
    1a36:	80 e2       	ldi	r24, 0x20	; 32
    1a38:	83 15       	cp	r24, r3
    1a3a:	08 f0       	brcs	.+2      	; 0x1a3e <create_name+0x66>
    1a3c:	64 c0       	rjmp	.+200    	; 0x1b06 <create_name+0x12e>
    1a3e:	9f e2       	ldi	r25, 0x2F	; 47
    1a40:	39 16       	cp	r3, r25
    1a42:	29 f0       	breq	.+10     	; 0x1a4e <create_name+0x76>
    1a44:	ec e5       	ldi	r30, 0x5C	; 92
    1a46:	3e 12       	cpse	r3, r30
    1a48:	0b c0       	rjmp	.+22     	; 0x1a60 <create_name+0x88>
    1a4a:	01 c0       	rjmp	.+2      	; 0x1a4e <create_name+0x76>
    1a4c:	21 96       	adiw	r28, 0x01	; 1
    1a4e:	f6 01       	movw	r30, r12
    1a50:	ec 0f       	add	r30, r28
    1a52:	fd 1f       	adc	r31, r29
    1a54:	80 81       	ld	r24, Z
    1a56:	8f 32       	cpi	r24, 0x2F	; 47
    1a58:	c9 f3       	breq	.-14     	; 0x1a4c <create_name+0x74>
    1a5a:	8c 35       	cpi	r24, 0x5C	; 92
    1a5c:	b9 f3       	breq	.-18     	; 0x1a4c <create_name+0x74>
    1a5e:	53 c0       	rjmp	.+166    	; 0x1b06 <create_name+0x12e>
    1a60:	fe e2       	ldi	r31, 0x2E	; 46
    1a62:	3f 16       	cp	r3, r31
    1a64:	19 f0       	breq	.+6      	; 0x1a6c <create_name+0x94>
    1a66:	e8 14       	cp	r14, r8
    1a68:	f9 04       	cpc	r15, r9
    1a6a:	98 f0       	brcs	.+38     	; 0x1a92 <create_name+0xba>
    1a6c:	8b e0       	ldi	r24, 0x0B	; 11
    1a6e:	88 16       	cp	r8, r24
    1a70:	91 04       	cpc	r9, r1
    1a72:	09 f4       	brne	.+2      	; 0x1a76 <create_name+0x9e>
    1a74:	64 c0       	rjmp	.+200    	; 0x1b3e <create_name+0x166>
    1a76:	9e e2       	ldi	r25, 0x2E	; 46
    1a78:	39 12       	cpse	r3, r25
    1a7a:	63 c0       	rjmp	.+198    	; 0x1b42 <create_name+0x16a>
    1a7c:	8e 01       	movw	r16, r28
    1a7e:	68 94       	set
    1a80:	ee 24       	eor	r14, r14
    1a82:	e3 f8       	bld	r14, 3
    1a84:	f1 2c       	mov	r15, r1
    1a86:	0f 2e       	mov	r0, r31
    1a88:	fb e0       	ldi	r31, 0x0B	; 11
    1a8a:	8f 2e       	mov	r8, r31
    1a8c:	91 2c       	mov	r9, r1
    1a8e:	f0 2d       	mov	r31, r0
    1a90:	cc cf       	rjmp	.-104    	; 0x1a2a <create_name+0x52>
    1a92:	83 2d       	mov	r24, r3
    1a94:	0e 94 f7 00 	call	0x1ee	; 0x1ee <dbc_1st>
    1a98:	89 2b       	or	r24, r25
    1a9a:	f1 f0       	breq	.+60     	; 0x1ad8 <create_name+0x100>
    1a9c:	0e 5f       	subi	r16, 0xFE	; 254
    1a9e:	1f 4f       	sbci	r17, 0xFF	; 255
    1aa0:	cc 0d       	add	r28, r12
    1aa2:	dd 1d       	adc	r29, r13
    1aa4:	c8 81       	ld	r28, Y
    1aa6:	8c 2f       	mov	r24, r28
    1aa8:	0e 94 0e 01 	call	0x21c	; 0x21c <dbc_2nd>
    1aac:	89 2b       	or	r24, r25
    1aae:	09 f4       	brne	.+2      	; 0x1ab2 <create_name+0xda>
    1ab0:	4a c0       	rjmp	.+148    	; 0x1b46 <create_name+0x16e>
    1ab2:	c4 01       	movw	r24, r8
    1ab4:	01 97       	sbiw	r24, 0x01	; 1
    1ab6:	e8 16       	cp	r14, r24
    1ab8:	f9 06       	cpc	r15, r25
    1aba:	08 f0       	brcs	.+2      	; 0x1abe <create_name+0xe6>
    1abc:	46 c0       	rjmp	.+140    	; 0x1b4a <create_name+0x172>
    1abe:	f5 01       	movw	r30, r10
    1ac0:	ee 0d       	add	r30, r14
    1ac2:	ff 1d       	adc	r31, r15
    1ac4:	30 82       	st	Z, r3
    1ac6:	f7 01       	movw	r30, r14
    1ac8:	31 96       	adiw	r30, 0x01	; 1
    1aca:	ea 0d       	add	r30, r10
    1acc:	fb 1d       	adc	r31, r11
    1ace:	82 e0       	ldi	r24, 0x02	; 2
    1ad0:	e8 0e       	add	r14, r24
    1ad2:	f1 1c       	adc	r15, r1
    1ad4:	c0 83       	st	Z, r28
    1ad6:	a9 cf       	rjmp	.-174    	; 0x1a2a <create_name+0x52>
    1ad8:	63 2d       	mov	r22, r3
    1ada:	70 e0       	ldi	r23, 0x00	; 0
    1adc:	80 e1       	ldi	r24, 0x10	; 16
    1ade:	90 e4       	ldi	r25, 0x40	; 64
    1ae0:	0e 94 3b 19 	call	0x3276	; 0x3276 <strchr>
    1ae4:	89 2b       	or	r24, r25
    1ae6:	99 f5       	brne	.+102    	; 0x1b4e <create_name+0x176>
    1ae8:	8f e9       	ldi	r24, 0x9F	; 159
    1aea:	83 0d       	add	r24, r3
    1aec:	8a 31       	cpi	r24, 0x1A	; 26
    1aee:	10 f4       	brcc	.+4      	; 0x1af4 <create_name+0x11c>
    1af0:	90 ee       	ldi	r25, 0xE0	; 224
    1af2:	39 0e       	add	r3, r25
    1af4:	f5 01       	movw	r30, r10
    1af6:	ee 0d       	add	r30, r14
    1af8:	ff 1d       	adc	r31, r15
    1afa:	30 82       	st	Z, r3
    1afc:	f7 01       	movw	r30, r14
    1afe:	31 96       	adiw	r30, 0x01	; 1
    1b00:	7f 01       	movw	r14, r30
    1b02:	8e 01       	movw	r16, r28
    1b04:	92 cf       	rjmp	.-220    	; 0x1a2a <create_name+0x52>
    1b06:	cc 0d       	add	r28, r12
    1b08:	dd 1d       	adc	r29, r13
    1b0a:	f2 01       	movw	r30, r4
    1b0c:	c0 83       	st	Z, r28
    1b0e:	d1 83       	std	Z+1, r29	; 0x01
    1b10:	ef 28       	or	r14, r15
    1b12:	f9 f0       	breq	.+62     	; 0x1b52 <create_name+0x17a>
    1b14:	f3 01       	movw	r30, r6
    1b16:	84 8d       	ldd	r24, Z+28	; 0x1c
    1b18:	85 3e       	cpi	r24, 0xE5	; 229
    1b1a:	11 f4       	brne	.+4      	; 0x1b20 <create_name+0x148>
    1b1c:	85 e0       	ldi	r24, 0x05	; 5
    1b1e:	84 8f       	std	Z+28, r24	; 0x1c
    1b20:	f0 e2       	ldi	r31, 0x20	; 32
    1b22:	f3 15       	cp	r31, r3
    1b24:	28 f4       	brcc	.+10     	; 0x1b30 <create_name+0x158>
    1b26:	88 81       	ld	r24, Y
    1b28:	81 32       	cpi	r24, 0x21	; 33
    1b2a:	20 f4       	brcc	.+8      	; 0x1b34 <create_name+0x15c>
    1b2c:	84 e0       	ldi	r24, 0x04	; 4
    1b2e:	03 c0       	rjmp	.+6      	; 0x1b36 <create_name+0x15e>
    1b30:	84 e0       	ldi	r24, 0x04	; 4
    1b32:	01 c0       	rjmp	.+2      	; 0x1b36 <create_name+0x15e>
    1b34:	80 e0       	ldi	r24, 0x00	; 0
    1b36:	f3 01       	movw	r30, r6
    1b38:	87 a3       	std	Z+39, r24	; 0x27
    1b3a:	80 e0       	ldi	r24, 0x00	; 0
    1b3c:	0b c0       	rjmp	.+22     	; 0x1b54 <create_name+0x17c>
    1b3e:	86 e0       	ldi	r24, 0x06	; 6
    1b40:	09 c0       	rjmp	.+18     	; 0x1b54 <create_name+0x17c>
    1b42:	86 e0       	ldi	r24, 0x06	; 6
    1b44:	07 c0       	rjmp	.+14     	; 0x1b54 <create_name+0x17c>
    1b46:	86 e0       	ldi	r24, 0x06	; 6
    1b48:	05 c0       	rjmp	.+10     	; 0x1b54 <create_name+0x17c>
    1b4a:	86 e0       	ldi	r24, 0x06	; 6
    1b4c:	03 c0       	rjmp	.+6      	; 0x1b54 <create_name+0x17c>
    1b4e:	86 e0       	ldi	r24, 0x06	; 6
    1b50:	01 c0       	rjmp	.+2      	; 0x1b54 <create_name+0x17c>
    1b52:	86 e0       	ldi	r24, 0x06	; 6
    1b54:	df 91       	pop	r29
    1b56:	cf 91       	pop	r28
    1b58:	1f 91       	pop	r17
    1b5a:	0f 91       	pop	r16
    1b5c:	ff 90       	pop	r15
    1b5e:	ef 90       	pop	r14
    1b60:	df 90       	pop	r13
    1b62:	cf 90       	pop	r12
    1b64:	bf 90       	pop	r11
    1b66:	af 90       	pop	r10
    1b68:	9f 90       	pop	r9
    1b6a:	8f 90       	pop	r8
    1b6c:	7f 90       	pop	r7
    1b6e:	6f 90       	pop	r6
    1b70:	5f 90       	pop	r5
    1b72:	4f 90       	pop	r4
    1b74:	3f 90       	pop	r3
    1b76:	08 95       	ret

00001b78 <follow_path>:
    1b78:	ef 92       	push	r14
    1b7a:	ff 92       	push	r15
    1b7c:	0f 93       	push	r16
    1b7e:	1f 93       	push	r17
    1b80:	cf 93       	push	r28
    1b82:	df 93       	push	r29
    1b84:	00 d0       	rcall	.+0      	; 0x1b86 <follow_path+0xe>
    1b86:	cd b7       	in	r28, 0x3d	; 61
    1b88:	de b7       	in	r29, 0x3e	; 62
    1b8a:	8c 01       	movw	r16, r24
    1b8c:	69 83       	std	Y+1, r22	; 0x01
    1b8e:	7a 83       	std	Y+2, r23	; 0x02
    1b90:	dc 01       	movw	r26, r24
    1b92:	ed 90       	ld	r14, X+
    1b94:	fc 90       	ld	r15, X
    1b96:	03 c0       	rjmp	.+6      	; 0x1b9e <follow_path+0x26>
    1b98:	31 96       	adiw	r30, 0x01	; 1
    1b9a:	e9 83       	std	Y+1, r30	; 0x01
    1b9c:	fa 83       	std	Y+2, r31	; 0x02
    1b9e:	e9 81       	ldd	r30, Y+1	; 0x01
    1ba0:	fa 81       	ldd	r31, Y+2	; 0x02
    1ba2:	80 81       	ld	r24, Z
    1ba4:	8f 32       	cpi	r24, 0x2F	; 47
    1ba6:	c1 f3       	breq	.-16     	; 0x1b98 <follow_path+0x20>
    1ba8:	8c 35       	cpi	r24, 0x5C	; 92
    1baa:	b1 f3       	breq	.-20     	; 0x1b98 <follow_path+0x20>
    1bac:	d8 01       	movw	r26, r16
    1bae:	16 96       	adiw	r26, 0x06	; 6
    1bb0:	1d 92       	st	X+, r1
    1bb2:	1d 92       	st	X+, r1
    1bb4:	1d 92       	st	X+, r1
    1bb6:	1c 92       	st	X, r1
    1bb8:	19 97       	sbiw	r26, 0x09	; 9
    1bba:	80 81       	ld	r24, Z
    1bbc:	80 32       	cpi	r24, 0x20	; 32
    1bbe:	50 f4       	brcc	.+20     	; 0x1bd4 <follow_path+0x5c>
    1bc0:	80 e8       	ldi	r24, 0x80	; 128
    1bc2:	97 96       	adiw	r26, 0x27	; 39
    1bc4:	8c 93       	st	X, r24
    1bc6:	40 e0       	ldi	r20, 0x00	; 0
    1bc8:	50 e0       	ldi	r21, 0x00	; 0
    1bca:	ba 01       	movw	r22, r20
    1bcc:	c8 01       	movw	r24, r16
    1bce:	0e 94 4a 08 	call	0x1094	; 0x1094 <dir_sdi>
    1bd2:	32 c0       	rjmp	.+100    	; 0x1c38 <follow_path+0xc0>
    1bd4:	be 01       	movw	r22, r28
    1bd6:	6f 5f       	subi	r22, 0xFF	; 255
    1bd8:	7f 4f       	sbci	r23, 0xFF	; 255
    1bda:	c8 01       	movw	r24, r16
    1bdc:	0e 94 ec 0c 	call	0x19d8	; 0x19d8 <create_name>
    1be0:	81 11       	cpse	r24, r1
    1be2:	2a c0       	rjmp	.+84     	; 0x1c38 <follow_path+0xc0>
    1be4:	c8 01       	movw	r24, r16
    1be6:	0e 94 6c 0c 	call	0x18d8	; 0x18d8 <dir_find>
    1bea:	f8 01       	movw	r30, r16
    1bec:	97 a1       	ldd	r25, Z+39	; 0x27
    1bee:	88 23       	and	r24, r24
    1bf0:	29 f0       	breq	.+10     	; 0x1bfc <follow_path+0x84>
    1bf2:	84 30       	cpi	r24, 0x04	; 4
    1bf4:	09 f5       	brne	.+66     	; 0x1c38 <follow_path+0xc0>
    1bf6:	92 ff       	sbrs	r25, 2
    1bf8:	1c c0       	rjmp	.+56     	; 0x1c32 <follow_path+0xba>
    1bfa:	1e c0       	rjmp	.+60     	; 0x1c38 <follow_path+0xc0>
    1bfc:	92 fd       	sbrc	r25, 2
    1bfe:	1c c0       	rjmp	.+56     	; 0x1c38 <follow_path+0xc0>
    1c00:	d8 01       	movw	r26, r16
    1c02:	84 81       	ldd	r24, Z+4	; 0x04
    1c04:	84 ff       	sbrs	r24, 4
    1c06:	17 c0       	rjmp	.+46     	; 0x1c36 <follow_path+0xbe>
    1c08:	1e 96       	adiw	r26, 0x0e	; 14
    1c0a:	8d 91       	ld	r24, X+
    1c0c:	9d 91       	ld	r25, X+
    1c0e:	0d 90       	ld	r0, X+
    1c10:	bc 91       	ld	r27, X
    1c12:	a0 2d       	mov	r26, r0
    1c14:	91 70       	andi	r25, 0x01	; 1
    1c16:	b7 01       	movw	r22, r14
    1c18:	61 5d       	subi	r22, 0xD1	; 209
    1c1a:	7f 4f       	sbci	r23, 0xFF	; 255
    1c1c:	68 0f       	add	r22, r24
    1c1e:	79 1f       	adc	r23, r25
    1c20:	c7 01       	movw	r24, r14
    1c22:	0e 94 55 01 	call	0x2aa	; 0x2aa <ld_clust>
    1c26:	f8 01       	movw	r30, r16
    1c28:	66 83       	std	Z+6, r22	; 0x06
    1c2a:	77 83       	std	Z+7, r23	; 0x07
    1c2c:	80 87       	std	Z+8, r24	; 0x08
    1c2e:	91 87       	std	Z+9, r25	; 0x09
    1c30:	d1 cf       	rjmp	.-94     	; 0x1bd4 <follow_path+0x5c>
    1c32:	85 e0       	ldi	r24, 0x05	; 5
    1c34:	01 c0       	rjmp	.+2      	; 0x1c38 <follow_path+0xc0>
    1c36:	85 e0       	ldi	r24, 0x05	; 5
    1c38:	0f 90       	pop	r0
    1c3a:	0f 90       	pop	r0
    1c3c:	df 91       	pop	r29
    1c3e:	cf 91       	pop	r28
    1c40:	1f 91       	pop	r17
    1c42:	0f 91       	pop	r16
    1c44:	ff 90       	pop	r15
    1c46:	ef 90       	pop	r14
    1c48:	08 95       	ret

00001c4a <dir_register>:
    1c4a:	0f 93       	push	r16
    1c4c:	1f 93       	push	r17
    1c4e:	cf 93       	push	r28
    1c50:	df 93       	push	r29
    1c52:	ec 01       	movw	r28, r24
    1c54:	08 81       	ld	r16, Y
    1c56:	19 81       	ldd	r17, Y+1	; 0x01
    1c58:	61 e0       	ldi	r22, 0x01	; 1
    1c5a:	70 e0       	ldi	r23, 0x00	; 0
    1c5c:	0e 94 ac 0c 	call	0x1958	; 0x1958 <dir_alloc>
    1c60:	81 11       	cpse	r24, r1
    1c62:	1c c0       	rjmp	.+56     	; 0x1c9c <dir_register+0x52>
    1c64:	4e 89       	ldd	r20, Y+22	; 0x16
    1c66:	5f 89       	ldd	r21, Y+23	; 0x17
    1c68:	68 8d       	ldd	r22, Y+24	; 0x18
    1c6a:	79 8d       	ldd	r23, Y+25	; 0x19
    1c6c:	c8 01       	movw	r24, r16
    1c6e:	0e 94 6e 02 	call	0x4dc	; 0x4dc <move_window>
    1c72:	81 11       	cpse	r24, r1
    1c74:	13 c0       	rjmp	.+38     	; 0x1c9c <dir_register+0x52>
    1c76:	ea 8d       	ldd	r30, Y+26	; 0x1a
    1c78:	fb 8d       	ldd	r31, Y+27	; 0x1b
    1c7a:	90 e2       	ldi	r25, 0x20	; 32
    1c7c:	df 01       	movw	r26, r30
    1c7e:	1d 92       	st	X+, r1
    1c80:	9a 95       	dec	r25
    1c82:	e9 f7       	brne	.-6      	; 0x1c7e <dir_register+0x34>
    1c84:	fe 01       	movw	r30, r28
    1c86:	7c 96       	adiw	r30, 0x1c	; 28
    1c88:	aa 8d       	ldd	r26, Y+26	; 0x1a
    1c8a:	bb 8d       	ldd	r27, Y+27	; 0x1b
    1c8c:	9b e0       	ldi	r25, 0x0B	; 11
    1c8e:	01 90       	ld	r0, Z+
    1c90:	0d 92       	st	X+, r0
    1c92:	9a 95       	dec	r25
    1c94:	e1 f7       	brne	.-8      	; 0x1c8e <dir_register+0x44>
    1c96:	91 e0       	ldi	r25, 0x01	; 1
    1c98:	f8 01       	movw	r30, r16
    1c9a:	93 83       	std	Z+3, r25	; 0x03
    1c9c:	df 91       	pop	r29
    1c9e:	cf 91       	pop	r28
    1ca0:	1f 91       	pop	r17
    1ca2:	0f 91       	pop	r16
    1ca4:	08 95       	ret

00001ca6 <sync_fs>:
    1ca6:	cf 92       	push	r12
    1ca8:	df 92       	push	r13
    1caa:	ff 92       	push	r15
    1cac:	0f 93       	push	r16
    1cae:	1f 93       	push	r17
    1cb0:	cf 93       	push	r28
    1cb2:	df 93       	push	r29
    1cb4:	ec 01       	movw	r28, r24
    1cb6:	0e 94 14 02 	call	0x428	; 0x428 <sync_window>
    1cba:	f8 2e       	mov	r15, r24
    1cbc:	81 11       	cpse	r24, r1
    1cbe:	5c c0       	rjmp	.+184    	; 0x1d78 <sync_fs+0xd2>
    1cc0:	88 81       	ld	r24, Y
    1cc2:	83 30       	cpi	r24, 0x03	; 3
    1cc4:	09 f0       	breq	.+2      	; 0x1cc8 <sync_fs+0x22>
    1cc6:	4e c0       	rjmp	.+156    	; 0x1d64 <sync_fs+0xbe>
    1cc8:	8c 81       	ldd	r24, Y+4	; 0x04
    1cca:	81 30       	cpi	r24, 0x01	; 1
    1ccc:	09 f0       	breq	.+2      	; 0x1cd0 <sync_fs+0x2a>
    1cce:	4a c0       	rjmp	.+148    	; 0x1d64 <sync_fs+0xbe>
    1cd0:	80 e0       	ldi	r24, 0x00	; 0
    1cd2:	92 e0       	ldi	r25, 0x02	; 2
    1cd4:	6e 01       	movw	r12, r28
    1cd6:	2f e2       	ldi	r18, 0x2F	; 47
    1cd8:	c2 0e       	add	r12, r18
    1cda:	d1 1c       	adc	r13, r1
    1cdc:	f6 01       	movw	r30, r12
    1cde:	9c 01       	movw	r18, r24
    1ce0:	11 92       	st	Z+, r1
    1ce2:	21 50       	subi	r18, 0x01	; 1
    1ce4:	30 40       	sbci	r19, 0x00	; 0
    1ce6:	e1 f7       	brne	.-8      	; 0x1ce0 <sync_fs+0x3a>
    1ce8:	65 e5       	ldi	r22, 0x55	; 85
    1cea:	7a ea       	ldi	r23, 0xAA	; 170
    1cec:	ce 01       	movw	r24, r28
    1cee:	83 5d       	subi	r24, 0xD3	; 211
    1cf0:	9d 4f       	sbci	r25, 0xFD	; 253
    1cf2:	0e 94 ed 00 	call	0x1da	; 0x1da <st_word>
    1cf6:	42 e5       	ldi	r20, 0x52	; 82
    1cf8:	52 e5       	ldi	r21, 0x52	; 82
    1cfa:	61 e6       	ldi	r22, 0x61	; 97
    1cfc:	71 e4       	ldi	r23, 0x41	; 65
    1cfe:	c6 01       	movw	r24, r12
    1d00:	0e 94 f1 00 	call	0x1e2	; 0x1e2 <st_dword>
    1d04:	42 e7       	ldi	r20, 0x72	; 114
    1d06:	52 e7       	ldi	r21, 0x72	; 114
    1d08:	61 e4       	ldi	r22, 0x41	; 65
    1d0a:	71 e6       	ldi	r23, 0x61	; 97
    1d0c:	ce 01       	movw	r24, r28
    1d0e:	8d 5e       	subi	r24, 0xED	; 237
    1d10:	9d 4f       	sbci	r25, 0xFD	; 253
    1d12:	0e 94 f1 00 	call	0x1e2	; 0x1e2 <st_dword>
    1d16:	4f 85       	ldd	r20, Y+15	; 0x0f
    1d18:	58 89       	ldd	r21, Y+16	; 0x10
    1d1a:	69 89       	ldd	r22, Y+17	; 0x11
    1d1c:	7a 89       	ldd	r23, Y+18	; 0x12
    1d1e:	ce 01       	movw	r24, r28
    1d20:	89 5e       	subi	r24, 0xE9	; 233
    1d22:	9d 4f       	sbci	r25, 0xFD	; 253
    1d24:	0e 94 f1 00 	call	0x1e2	; 0x1e2 <st_dword>
    1d28:	4b 85       	ldd	r20, Y+11	; 0x0b
    1d2a:	5c 85       	ldd	r21, Y+12	; 0x0c
    1d2c:	6d 85       	ldd	r22, Y+13	; 0x0d
    1d2e:	7e 85       	ldd	r23, Y+14	; 0x0e
    1d30:	ce 01       	movw	r24, r28
    1d32:	85 5e       	subi	r24, 0xE5	; 229
    1d34:	9d 4f       	sbci	r25, 0xFD	; 253
    1d36:	0e 94 f1 00 	call	0x1e2	; 0x1e2 <st_dword>
    1d3a:	8b 8d       	ldd	r24, Y+27	; 0x1b
    1d3c:	9c 8d       	ldd	r25, Y+28	; 0x1c
    1d3e:	ad 8d       	ldd	r26, Y+29	; 0x1d
    1d40:	be 8d       	ldd	r27, Y+30	; 0x1e
    1d42:	9c 01       	movw	r18, r24
    1d44:	ad 01       	movw	r20, r26
    1d46:	2f 5f       	subi	r18, 0xFF	; 255
    1d48:	3f 4f       	sbci	r19, 0xFF	; 255
    1d4a:	4f 4f       	sbci	r20, 0xFF	; 255
    1d4c:	5f 4f       	sbci	r21, 0xFF	; 255
    1d4e:	2b a7       	std	Y+43, r18	; 0x2b
    1d50:	3c a7       	std	Y+44, r19	; 0x2c
    1d52:	4d a7       	std	Y+45, r20	; 0x2d
    1d54:	5e a7       	std	Y+46, r21	; 0x2e
    1d56:	01 e0       	ldi	r16, 0x01	; 1
    1d58:	10 e0       	ldi	r17, 0x00	; 0
    1d5a:	b6 01       	movw	r22, r12
    1d5c:	89 81       	ldd	r24, Y+1	; 0x01
    1d5e:	0e 94 b6 00 	call	0x16c	; 0x16c <disk_write>
    1d62:	1c 82       	std	Y+4, r1	; 0x04
    1d64:	40 e0       	ldi	r20, 0x00	; 0
    1d66:	50 e0       	ldi	r21, 0x00	; 0
    1d68:	60 e0       	ldi	r22, 0x00	; 0
    1d6a:	89 81       	ldd	r24, Y+1	; 0x01
    1d6c:	0e 94 c3 00 	call	0x186	; 0x186 <disk_ioctl>
    1d70:	88 23       	and	r24, r24
    1d72:	11 f0       	breq	.+4      	; 0x1d78 <sync_fs+0xd2>
    1d74:	ff 24       	eor	r15, r15
    1d76:	f3 94       	inc	r15
    1d78:	8f 2d       	mov	r24, r15
    1d7a:	df 91       	pop	r29
    1d7c:	cf 91       	pop	r28
    1d7e:	1f 91       	pop	r17
    1d80:	0f 91       	pop	r16
    1d82:	ff 90       	pop	r15
    1d84:	df 90       	pop	r13
    1d86:	cf 90       	pop	r12
    1d88:	08 95       	ret

00001d8a <f_mount>:
    1d8a:	1f 93       	push	r17
    1d8c:	cf 93       	push	r28
    1d8e:	df 93       	push	r29
    1d90:	cd b7       	in	r28, 0x3d	; 61
    1d92:	de b7       	in	r29, 0x3e	; 62
    1d94:	26 97       	sbiw	r28, 0x06	; 6
    1d96:	cd bf       	out	0x3d, r28	; 61
    1d98:	de bf       	out	0x3e, r29	; 62
    1d9a:	8b 83       	std	Y+3, r24	; 0x03
    1d9c:	9c 83       	std	Y+4, r25	; 0x04
    1d9e:	6d 83       	std	Y+5, r22	; 0x05
    1da0:	7e 83       	std	Y+6, r23	; 0x06
    1da2:	14 2f       	mov	r17, r20
    1da4:	69 83       	std	Y+1, r22	; 0x01
    1da6:	7a 83       	std	Y+2, r23	; 0x02
    1da8:	ce 01       	movw	r24, r28
    1daa:	01 96       	adiw	r24, 0x01	; 1
    1dac:	0e 94 a7 01 	call	0x34e	; 0x34e <get_ldnumber>
    1db0:	99 23       	and	r25, r25
    1db2:	24 f1       	brlt	.+72     	; 0x1dfc <f_mount+0x72>
    1db4:	fc 01       	movw	r30, r24
    1db6:	ee 0f       	add	r30, r30
    1db8:	ff 1f       	adc	r31, r31
    1dba:	ee 5a       	subi	r30, 0xAE	; 174
    1dbc:	ff 4b       	sbci	r31, 0xBF	; 191
    1dbe:	01 90       	ld	r0, Z+
    1dc0:	f0 81       	ld	r31, Z
    1dc2:	e0 2d       	mov	r30, r0
    1dc4:	30 97       	sbiw	r30, 0x00	; 0
    1dc6:	09 f0       	breq	.+2      	; 0x1dca <f_mount+0x40>
    1dc8:	10 82       	st	Z, r1
    1dca:	eb 81       	ldd	r30, Y+3	; 0x03
    1dcc:	fc 81       	ldd	r31, Y+4	; 0x04
    1dce:	30 97       	sbiw	r30, 0x00	; 0
    1dd0:	09 f0       	breq	.+2      	; 0x1dd4 <f_mount+0x4a>
    1dd2:	10 82       	st	Z, r1
    1dd4:	88 0f       	add	r24, r24
    1dd6:	99 1f       	adc	r25, r25
    1dd8:	fc 01       	movw	r30, r24
    1dda:	ee 5a       	subi	r30, 0xAE	; 174
    1ddc:	ff 4b       	sbci	r31, 0xBF	; 191
    1dde:	8b 81       	ldd	r24, Y+3	; 0x03
    1de0:	9c 81       	ldd	r25, Y+4	; 0x04
    1de2:	80 83       	st	Z, r24
    1de4:	91 83       	std	Z+1, r25	; 0x01
    1de6:	11 23       	and	r17, r17
    1de8:	59 f0       	breq	.+22     	; 0x1e00 <f_mount+0x76>
    1dea:	40 e0       	ldi	r20, 0x00	; 0
    1dec:	be 01       	movw	r22, r28
    1dee:	6d 5f       	subi	r22, 0xFD	; 253
    1df0:	7f 4f       	sbci	r23, 0xFF	; 255
    1df2:	ce 01       	movw	r24, r28
    1df4:	05 96       	adiw	r24, 0x05	; 5
    1df6:	0e 94 c2 03 	call	0x784	; 0x784 <mount_volume>
    1dfa:	03 c0       	rjmp	.+6      	; 0x1e02 <f_mount+0x78>
    1dfc:	8b e0       	ldi	r24, 0x0B	; 11
    1dfe:	01 c0       	rjmp	.+2      	; 0x1e02 <f_mount+0x78>
    1e00:	80 e0       	ldi	r24, 0x00	; 0
    1e02:	26 96       	adiw	r28, 0x06	; 6
    1e04:	cd bf       	out	0x3d, r28	; 61
    1e06:	de bf       	out	0x3e, r29	; 62
    1e08:	df 91       	pop	r29
    1e0a:	cf 91       	pop	r28
    1e0c:	1f 91       	pop	r17
    1e0e:	08 95       	ret

00001e10 <f_open>:
    1e10:	2f 92       	push	r2
    1e12:	3f 92       	push	r3
    1e14:	4f 92       	push	r4
    1e16:	5f 92       	push	r5
    1e18:	6f 92       	push	r6
    1e1a:	7f 92       	push	r7
    1e1c:	8f 92       	push	r8
    1e1e:	9f 92       	push	r9
    1e20:	af 92       	push	r10
    1e22:	bf 92       	push	r11
    1e24:	cf 92       	push	r12
    1e26:	df 92       	push	r13
    1e28:	ff 92       	push	r15
    1e2a:	0f 93       	push	r16
    1e2c:	1f 93       	push	r17
    1e2e:	cf 93       	push	r28
    1e30:	df 93       	push	r29
    1e32:	cd b7       	in	r28, 0x3d	; 61
    1e34:	de b7       	in	r29, 0x3e	; 62
    1e36:	e0 97       	sbiw	r28, 0x30	; 48
    1e38:	cd bf       	out	0x3d, r28	; 61
    1e3a:	de bf       	out	0x3e, r29	; 62
    1e3c:	6b a7       	std	Y+43, r22	; 0x2b
    1e3e:	7c a7       	std	Y+44, r23	; 0x2c
    1e40:	00 97       	sbiw	r24, 0x00	; 0
    1e42:	09 f4       	brne	.+2      	; 0x1e46 <f_open+0x36>
    1e44:	a9 c1       	rjmp	.+850    	; 0x2198 <f_open+0x388>
    1e46:	14 2f       	mov	r17, r20
    1e48:	6c 01       	movw	r12, r24
    1e4a:	24 2f       	mov	r18, r20
    1e4c:	2f 73       	andi	r18, 0x3F	; 63
    1e4e:	52 2e       	mov	r5, r18
    1e50:	42 2f       	mov	r20, r18
    1e52:	be 01       	movw	r22, r28
    1e54:	67 5d       	subi	r22, 0xD7	; 215
    1e56:	7f 4f       	sbci	r23, 0xFF	; 255
    1e58:	ce 01       	movw	r24, r28
    1e5a:	8b 96       	adiw	r24, 0x2b	; 43
    1e5c:	0e 94 c2 03 	call	0x784	; 0x784 <mount_volume>
    1e60:	f8 2e       	mov	r15, r24
    1e62:	81 11       	cpse	r24, r1
    1e64:	92 c1       	rjmp	.+804    	; 0x218a <f_open+0x37a>
    1e66:	89 a5       	ldd	r24, Y+41	; 0x29
    1e68:	9a a5       	ldd	r25, Y+42	; 0x2a
    1e6a:	89 83       	std	Y+1, r24	; 0x01
    1e6c:	9a 83       	std	Y+2, r25	; 0x02
    1e6e:	6b a5       	ldd	r22, Y+43	; 0x2b
    1e70:	7c a5       	ldd	r23, Y+44	; 0x2c
    1e72:	ce 01       	movw	r24, r28
    1e74:	01 96       	adiw	r24, 0x01	; 1
    1e76:	0e 94 bc 0d 	call	0x1b78	; 0x1b78 <follow_path>
    1e7a:	f8 2e       	mov	r15, r24
    1e7c:	81 11       	cpse	r24, r1
    1e7e:	07 c0       	rjmp	.+14     	; 0x1e8e <f_open+0x7e>
    1e80:	88 a5       	ldd	r24, Y+40	; 0x28
    1e82:	88 23       	and	r24, r24
    1e84:	24 f4       	brge	.+8      	; 0x1e8e <f_open+0x7e>
    1e86:	0f 2e       	mov	r0, r31
    1e88:	f6 e0       	ldi	r31, 0x06	; 6
    1e8a:	ff 2e       	mov	r15, r31
    1e8c:	f0 2d       	mov	r31, r0
    1e8e:	81 2f       	mov	r24, r17
    1e90:	8c 71       	andi	r24, 0x1C	; 28
    1e92:	09 f4       	brne	.+2      	; 0x1e96 <f_open+0x86>
    1e94:	82 c0       	rjmp	.+260    	; 0x1f9a <f_open+0x18a>
    1e96:	ff 20       	and	r15, r15
    1e98:	61 f0       	breq	.+24     	; 0x1eb2 <f_open+0xa2>
    1e9a:	34 e0       	ldi	r19, 0x04	; 4
    1e9c:	f3 12       	cpse	r15, r19
    1e9e:	05 c0       	rjmp	.+10     	; 0x1eaa <f_open+0x9a>
    1ea0:	ce 01       	movw	r24, r28
    1ea2:	01 96       	adiw	r24, 0x01	; 1
    1ea4:	0e 94 25 0e 	call	0x1c4a	; 0x1c4a <dir_register>
    1ea8:	f8 2e       	mov	r15, r24
    1eaa:	85 2d       	mov	r24, r5
    1eac:	88 60       	ori	r24, 0x08	; 8
    1eae:	58 2e       	mov	r5, r24
    1eb0:	0e c0       	rjmp	.+28     	; 0x1ece <f_open+0xbe>
    1eb2:	8d 81       	ldd	r24, Y+5	; 0x05
    1eb4:	81 71       	andi	r24, 0x11	; 17
    1eb6:	19 f4       	brne	.+6      	; 0x1ebe <f_open+0xae>
    1eb8:	12 fd       	sbrc	r17, 2
    1eba:	06 c0       	rjmp	.+12     	; 0x1ec8 <f_open+0xb8>
    1ebc:	08 c0       	rjmp	.+16     	; 0x1ece <f_open+0xbe>
    1ebe:	0f 2e       	mov	r0, r31
    1ec0:	f7 e0       	ldi	r31, 0x07	; 7
    1ec2:	ff 2e       	mov	r15, r31
    1ec4:	f0 2d       	mov	r31, r0
    1ec6:	03 c0       	rjmp	.+6      	; 0x1ece <f_open+0xbe>
    1ec8:	68 94       	set
    1eca:	ff 24       	eor	r15, r15
    1ecc:	f3 f8       	bld	r15, 3
    1ece:	f1 10       	cpse	r15, r1
    1ed0:	76 c0       	rjmp	.+236    	; 0x1fbe <f_open+0x1ae>
    1ed2:	53 fe       	sbrs	r5, 3
    1ed4:	74 c0       	rjmp	.+232    	; 0x1fbe <f_open+0x1ae>
    1ed6:	8b 8d       	ldd	r24, Y+27	; 0x1b
    1ed8:	9c 8d       	ldd	r25, Y+28	; 0x1c
    1eda:	40 e0       	ldi	r20, 0x00	; 0
    1edc:	50 e0       	ldi	r21, 0x00	; 0
    1ede:	61 e2       	ldi	r22, 0x21	; 33
    1ee0:	70 e5       	ldi	r23, 0x50	; 80
    1ee2:	0e 96       	adiw	r24, 0x0e	; 14
    1ee4:	0e 94 f1 00 	call	0x1e2	; 0x1e2 <st_dword>
    1ee8:	8b 8d       	ldd	r24, Y+27	; 0x1b
    1eea:	9c 8d       	ldd	r25, Y+28	; 0x1c
    1eec:	40 e0       	ldi	r20, 0x00	; 0
    1eee:	50 e0       	ldi	r21, 0x00	; 0
    1ef0:	61 e2       	ldi	r22, 0x21	; 33
    1ef2:	70 e5       	ldi	r23, 0x50	; 80
    1ef4:	46 96       	adiw	r24, 0x16	; 22
    1ef6:	0e 94 f1 00 	call	0x1e2	; 0x1e2 <st_dword>
    1efa:	ab 8c       	ldd	r10, Y+27	; 0x1b
    1efc:	bc 8c       	ldd	r11, Y+28	; 0x1c
    1efe:	09 a5       	ldd	r16, Y+41	; 0x29
    1f00:	1a a5       	ldd	r17, Y+42	; 0x2a
    1f02:	b5 01       	movw	r22, r10
    1f04:	c8 01       	movw	r24, r16
    1f06:	0e 94 55 01 	call	0x2aa	; 0x2aa <ld_clust>
    1f0a:	3b 01       	movw	r6, r22
    1f0c:	4c 01       	movw	r8, r24
    1f0e:	80 e2       	ldi	r24, 0x20	; 32
    1f10:	d5 01       	movw	r26, r10
    1f12:	1b 96       	adiw	r26, 0x0b	; 11
    1f14:	8c 93       	st	X, r24
    1f16:	6b 8d       	ldd	r22, Y+27	; 0x1b
    1f18:	7c 8d       	ldd	r23, Y+28	; 0x1c
    1f1a:	20 e0       	ldi	r18, 0x00	; 0
    1f1c:	30 e0       	ldi	r19, 0x00	; 0
    1f1e:	a9 01       	movw	r20, r18
    1f20:	c8 01       	movw	r24, r16
    1f22:	0e 94 82 01 	call	0x304	; 0x304 <st_clust>
    1f26:	8b 8d       	ldd	r24, Y+27	; 0x1b
    1f28:	9c 8d       	ldd	r25, Y+28	; 0x1c
    1f2a:	40 e0       	ldi	r20, 0x00	; 0
    1f2c:	50 e0       	ldi	r21, 0x00	; 0
    1f2e:	ba 01       	movw	r22, r20
    1f30:	4c 96       	adiw	r24, 0x1c	; 28
    1f32:	0e 94 f1 00 	call	0x1e2	; 0x1e2 <st_dword>
    1f36:	e9 a5       	ldd	r30, Y+41	; 0x29
    1f38:	fa a5       	ldd	r31, Y+42	; 0x2a
    1f3a:	81 e0       	ldi	r24, 0x01	; 1
    1f3c:	83 83       	std	Z+3, r24	; 0x03
    1f3e:	61 14       	cp	r6, r1
    1f40:	71 04       	cpc	r7, r1
    1f42:	81 04       	cpc	r8, r1
    1f44:	91 04       	cpc	r9, r1
    1f46:	d9 f1       	breq	.+118    	; 0x1fbe <f_open+0x1ae>
    1f48:	83 a5       	ldd	r24, Z+43	; 0x2b
    1f4a:	94 a5       	ldd	r25, Z+44	; 0x2c
    1f4c:	a5 a5       	ldd	r26, Z+45	; 0x2d
    1f4e:	b6 a5       	ldd	r27, Z+46	; 0x2e
    1f50:	8d a7       	std	Y+45, r24	; 0x2d
    1f52:	9e a7       	std	Y+46, r25	; 0x2e
    1f54:	af a7       	std	Y+47, r26	; 0x2f
    1f56:	b8 ab       	std	Y+48, r27	; 0x30
    1f58:	00 e0       	ldi	r16, 0x00	; 0
    1f5a:	10 e0       	ldi	r17, 0x00	; 0
    1f5c:	98 01       	movw	r18, r16
    1f5e:	b4 01       	movw	r22, r8
    1f60:	a3 01       	movw	r20, r6
    1f62:	ce 01       	movw	r24, r28
    1f64:	01 96       	adiw	r24, 0x01	; 1
    1f66:	0e 94 81 0a 	call	0x1502	; 0x1502 <remove_chain>
    1f6a:	f8 2e       	mov	r15, r24
    1f6c:	81 11       	cpse	r24, r1
    1f6e:	27 c0       	rjmp	.+78     	; 0x1fbe <f_open+0x1ae>
    1f70:	4d a5       	ldd	r20, Y+45	; 0x2d
    1f72:	5e a5       	ldd	r21, Y+46	; 0x2e
    1f74:	6f a5       	ldd	r22, Y+47	; 0x2f
    1f76:	78 a9       	ldd	r23, Y+48	; 0x30
    1f78:	89 a5       	ldd	r24, Y+41	; 0x29
    1f7a:	9a a5       	ldd	r25, Y+42	; 0x2a
    1f7c:	0e 94 6e 02 	call	0x4dc	; 0x4dc <move_window>
    1f80:	f8 2e       	mov	r15, r24
    1f82:	e9 a5       	ldd	r30, Y+41	; 0x29
    1f84:	fa a5       	ldd	r31, Y+42	; 0x2a
    1f86:	d4 01       	movw	r26, r8
    1f88:	c3 01       	movw	r24, r6
    1f8a:	01 97       	sbiw	r24, 0x01	; 1
    1f8c:	a1 09       	sbc	r26, r1
    1f8e:	b1 09       	sbc	r27, r1
    1f90:	83 87       	std	Z+11, r24	; 0x0b
    1f92:	94 87       	std	Z+12, r25	; 0x0c
    1f94:	a5 87       	std	Z+13, r26	; 0x0d
    1f96:	b6 87       	std	Z+14, r27	; 0x0e
    1f98:	12 c0       	rjmp	.+36     	; 0x1fbe <f_open+0x1ae>
    1f9a:	f1 10       	cpse	r15, r1
    1f9c:	10 c0       	rjmp	.+32     	; 0x1fbe <f_open+0x1ae>
    1f9e:	8d 81       	ldd	r24, Y+5	; 0x05
    1fa0:	84 fd       	sbrc	r24, 4
    1fa2:	05 c0       	rjmp	.+10     	; 0x1fae <f_open+0x19e>
    1fa4:	11 ff       	sbrs	r17, 1
    1fa6:	0b c0       	rjmp	.+22     	; 0x1fbe <f_open+0x1ae>
    1fa8:	80 fd       	sbrc	r24, 0
    1faa:	05 c0       	rjmp	.+10     	; 0x1fb6 <f_open+0x1a6>
    1fac:	08 c0       	rjmp	.+16     	; 0x1fbe <f_open+0x1ae>
    1fae:	68 94       	set
    1fb0:	ff 24       	eor	r15, r15
    1fb2:	f2 f8       	bld	r15, 2
    1fb4:	04 c0       	rjmp	.+8      	; 0x1fbe <f_open+0x1ae>
    1fb6:	0f 2e       	mov	r0, r31
    1fb8:	f7 e0       	ldi	r31, 0x07	; 7
    1fba:	ff 2e       	mov	r15, r31
    1fbc:	f0 2d       	mov	r31, r0
    1fbe:	f1 10       	cpse	r15, r1
    1fc0:	14 c0       	rjmp	.+40     	; 0x1fea <f_open+0x1da>
    1fc2:	53 fe       	sbrs	r5, 3
    1fc4:	03 c0       	rjmp	.+6      	; 0x1fcc <f_open+0x1bc>
    1fc6:	95 2d       	mov	r25, r5
    1fc8:	90 64       	ori	r25, 0x40	; 64
    1fca:	59 2e       	mov	r5, r25
    1fcc:	e9 a5       	ldd	r30, Y+41	; 0x29
    1fce:	fa a5       	ldd	r31, Y+42	; 0x2a
    1fd0:	83 a5       	ldd	r24, Z+43	; 0x2b
    1fd2:	94 a5       	ldd	r25, Z+44	; 0x2c
    1fd4:	a5 a5       	ldd	r26, Z+45	; 0x2d
    1fd6:	b6 a5       	ldd	r27, Z+46	; 0x2e
    1fd8:	f6 01       	movw	r30, r12
    1fda:	84 8f       	std	Z+28, r24	; 0x1c
    1fdc:	95 8f       	std	Z+29, r25	; 0x1d
    1fde:	a6 8f       	std	Z+30, r26	; 0x1e
    1fe0:	b7 8f       	std	Z+31, r27	; 0x1f
    1fe2:	8b 8d       	ldd	r24, Y+27	; 0x1b
    1fe4:	9c 8d       	ldd	r25, Y+28	; 0x1c
    1fe6:	80 a3       	std	Z+32, r24	; 0x20
    1fe8:	91 a3       	std	Z+33, r25	; 0x21
    1fea:	f1 10       	cpse	r15, r1
    1fec:	ce c0       	rjmp	.+412    	; 0x218a <f_open+0x37a>
    1fee:	6b 8c       	ldd	r6, Y+27	; 0x1b
    1ff0:	7c 8c       	ldd	r7, Y+28	; 0x1c
    1ff2:	09 a5       	ldd	r16, Y+41	; 0x29
    1ff4:	1a a5       	ldd	r17, Y+42	; 0x2a
    1ff6:	b3 01       	movw	r22, r6
    1ff8:	c8 01       	movw	r24, r16
    1ffa:	0e 94 55 01 	call	0x2aa	; 0x2aa <ld_clust>
    1ffe:	6d a7       	std	Y+45, r22	; 0x2d
    2000:	7e a7       	std	Y+46, r23	; 0x2e
    2002:	8f a7       	std	Y+47, r24	; 0x2f
    2004:	98 ab       	std	Y+48, r25	; 0x30
    2006:	d6 01       	movw	r26, r12
    2008:	16 96       	adiw	r26, 0x06	; 6
    200a:	6d 93       	st	X+, r22
    200c:	7d 93       	st	X+, r23
    200e:	8d 93       	st	X+, r24
    2010:	9c 93       	st	X, r25
    2012:	19 97       	sbiw	r26, 0x09	; 9
    2014:	c3 01       	movw	r24, r6
    2016:	4c 96       	adiw	r24, 0x1c	; 28
    2018:	0e 94 d2 00 	call	0x1a4	; 0x1a4 <ld_dword>
    201c:	4b 01       	movw	r8, r22
    201e:	5c 01       	movw	r10, r24
    2020:	f6 01       	movw	r30, r12
    2022:	62 87       	std	Z+10, r22	; 0x0a
    2024:	73 87       	std	Z+11, r23	; 0x0b
    2026:	84 87       	std	Z+12, r24	; 0x0c
    2028:	95 87       	std	Z+13, r25	; 0x0d
    202a:	00 83       	st	Z, r16
    202c:	11 83       	std	Z+1, r17	; 0x01
    202e:	d8 01       	movw	r26, r16
    2030:	15 96       	adiw	r26, 0x05	; 5
    2032:	8d 91       	ld	r24, X+
    2034:	9c 91       	ld	r25, X
    2036:	16 97       	sbiw	r26, 0x06	; 6
    2038:	82 83       	std	Z+2, r24	; 0x02
    203a:	93 83       	std	Z+3, r25	; 0x03
    203c:	56 86       	std	Z+14, r5	; 0x0e
    203e:	17 86       	std	Z+15, r1	; 0x0f
    2040:	10 8e       	std	Z+24, r1	; 0x18
    2042:	11 8e       	std	Z+25, r1	; 0x19
    2044:	12 8e       	std	Z+26, r1	; 0x1a
    2046:	13 8e       	std	Z+27, r1	; 0x1b
    2048:	10 8a       	std	Z+16, r1	; 0x10
    204a:	11 8a       	std	Z+17, r1	; 0x11
    204c:	12 8a       	std	Z+18, r1	; 0x12
    204e:	13 8a       	std	Z+19, r1	; 0x13
    2050:	16 01       	movw	r2, r12
    2052:	b2 e2       	ldi	r27, 0x22	; 34
    2054:	2b 0e       	add	r2, r27
    2056:	31 1c       	adc	r3, r1
    2058:	80 e0       	ldi	r24, 0x00	; 0
    205a:	92 e0       	ldi	r25, 0x02	; 2
    205c:	f1 01       	movw	r30, r2
    205e:	9c 01       	movw	r18, r24
    2060:	11 92       	st	Z+, r1
    2062:	21 50       	subi	r18, 0x01	; 1
    2064:	30 40       	sbci	r19, 0x00	; 0
    2066:	e1 f7       	brne	.-8      	; 0x2060 <f_open+0x250>
    2068:	55 fe       	sbrs	r5, 5
    206a:	8f c0       	rjmp	.+286    	; 0x218a <f_open+0x37a>
    206c:	81 14       	cp	r8, r1
    206e:	91 04       	cpc	r9, r1
    2070:	a1 04       	cpc	r10, r1
    2072:	b1 04       	cpc	r11, r1
    2074:	09 f4       	brne	.+2      	; 0x2078 <f_open+0x268>
    2076:	89 c0       	rjmp	.+274    	; 0x218a <f_open+0x37a>
    2078:	d6 01       	movw	r26, r12
    207a:	50 96       	adiw	r26, 0x10	; 16
    207c:	8d 92       	st	X+, r8
    207e:	9d 92       	st	X+, r9
    2080:	ad 92       	st	X+, r10
    2082:	bc 92       	st	X, r11
    2084:	53 97       	sbiw	r26, 0x13	; 19
    2086:	f8 01       	movw	r30, r16
    2088:	41 84       	ldd	r4, Z+9	; 0x09
    208a:	52 84       	ldd	r5, Z+10	; 0x0a
    208c:	61 2c       	mov	r6, r1
    208e:	71 2c       	mov	r7, r1
    2090:	03 2e       	mov	r0, r19
    2092:	39 e0       	ldi	r19, 0x09	; 9
    2094:	44 0c       	add	r4, r4
    2096:	55 1c       	adc	r5, r5
    2098:	66 1c       	adc	r6, r6
    209a:	77 1c       	adc	r7, r7
    209c:	3a 95       	dec	r19
    209e:	d1 f7       	brne	.-12     	; 0x2094 <f_open+0x284>
    20a0:	30 2d       	mov	r19, r0
    20a2:	22 c0       	rjmp	.+68     	; 0x20e8 <f_open+0x2d8>
    20a4:	4d a5       	ldd	r20, Y+45	; 0x2d
    20a6:	5e a5       	ldd	r21, Y+46	; 0x2e
    20a8:	6f a5       	ldd	r22, Y+47	; 0x2f
    20aa:	78 a9       	ldd	r23, Y+48	; 0x30
    20ac:	c6 01       	movw	r24, r12
    20ae:	0e 94 68 07 	call	0xed0	; 0xed0 <get_fat>
    20b2:	6d a7       	std	Y+45, r22	; 0x2d
    20b4:	7e a7       	std	Y+46, r23	; 0x2e
    20b6:	8f a7       	std	Y+47, r24	; 0x2f
    20b8:	98 ab       	std	Y+48, r25	; 0x30
    20ba:	62 30       	cpi	r22, 0x02	; 2
    20bc:	71 05       	cpc	r23, r1
    20be:	81 05       	cpc	r24, r1
    20c0:	91 05       	cpc	r25, r1
    20c2:	18 f4       	brcc	.+6      	; 0x20ca <f_open+0x2ba>
    20c4:	68 94       	set
    20c6:	ff 24       	eor	r15, r15
    20c8:	f1 f8       	bld	r15, 1
    20ca:	8d a5       	ldd	r24, Y+45	; 0x2d
    20cc:	9e a5       	ldd	r25, Y+46	; 0x2e
    20ce:	af a5       	ldd	r26, Y+47	; 0x2f
    20d0:	b8 a9       	ldd	r27, Y+48	; 0x30
    20d2:	8f 3f       	cpi	r24, 0xFF	; 255
    20d4:	9f 4f       	sbci	r25, 0xFF	; 255
    20d6:	af 4f       	sbci	r26, 0xFF	; 255
    20d8:	bf 4f       	sbci	r27, 0xFF	; 255
    20da:	11 f4       	brne	.+4      	; 0x20e0 <f_open+0x2d0>
    20dc:	ff 24       	eor	r15, r15
    20de:	f3 94       	inc	r15
    20e0:	84 18       	sub	r8, r4
    20e2:	95 08       	sbc	r9, r5
    20e4:	a6 08       	sbc	r10, r6
    20e6:	b7 08       	sbc	r11, r7
    20e8:	f1 10       	cpse	r15, r1
    20ea:	05 c0       	rjmp	.+10     	; 0x20f6 <f_open+0x2e6>
    20ec:	48 14       	cp	r4, r8
    20ee:	59 04       	cpc	r5, r9
    20f0:	6a 04       	cpc	r6, r10
    20f2:	7b 04       	cpc	r7, r11
    20f4:	b8 f2       	brcs	.-82     	; 0x20a4 <f_open+0x294>
    20f6:	8d a5       	ldd	r24, Y+45	; 0x2d
    20f8:	9e a5       	ldd	r25, Y+46	; 0x2e
    20fa:	af a5       	ldd	r26, Y+47	; 0x2f
    20fc:	b8 a9       	ldd	r27, Y+48	; 0x30
    20fe:	f6 01       	movw	r30, r12
    2100:	84 8b       	std	Z+20, r24	; 0x14
    2102:	95 8b       	std	Z+21, r25	; 0x15
    2104:	a6 8b       	std	Z+22, r26	; 0x16
    2106:	b7 8b       	std	Z+23, r27	; 0x17
    2108:	f1 10       	cpse	r15, r1
    210a:	3f c0       	rjmp	.+126    	; 0x218a <f_open+0x37a>
    210c:	d5 01       	movw	r26, r10
    210e:	c4 01       	movw	r24, r8
    2110:	91 70       	andi	r25, 0x01	; 1
    2112:	aa 27       	eor	r26, r26
    2114:	bb 27       	eor	r27, r27
    2116:	89 2b       	or	r24, r25
    2118:	8a 2b       	or	r24, r26
    211a:	8b 2b       	or	r24, r27
    211c:	b1 f1       	breq	.+108    	; 0x218a <f_open+0x37a>
    211e:	69 a4       	ldd	r6, Y+41	; 0x29
    2120:	7a a4       	ldd	r7, Y+42	; 0x2a
    2122:	4d a5       	ldd	r20, Y+45	; 0x2d
    2124:	5e a5       	ldd	r21, Y+46	; 0x2e
    2126:	6f a5       	ldd	r22, Y+47	; 0x2f
    2128:	78 a9       	ldd	r23, Y+48	; 0x30
    212a:	c3 01       	movw	r24, r6
    212c:	0e 94 27 01 	call	0x24e	; 0x24e <clst2sect>
    2130:	61 15       	cp	r22, r1
    2132:	71 05       	cpc	r23, r1
    2134:	81 05       	cpc	r24, r1
    2136:	91 05       	cpc	r25, r1
    2138:	11 f1       	breq	.+68     	; 0x217e <f_open+0x36e>
    213a:	95 01       	movw	r18, r10
    213c:	84 01       	movw	r16, r8
    213e:	0f 2e       	mov	r0, r31
    2140:	f9 e0       	ldi	r31, 0x09	; 9
    2142:	36 95       	lsr	r19
    2144:	27 95       	ror	r18
    2146:	17 95       	ror	r17
    2148:	07 95       	ror	r16
    214a:	fa 95       	dec	r31
    214c:	d1 f7       	brne	.-12     	; 0x2142 <f_open+0x332>
    214e:	f0 2d       	mov	r31, r0
    2150:	a9 01       	movw	r20, r18
    2152:	98 01       	movw	r18, r16
    2154:	26 0f       	add	r18, r22
    2156:	37 1f       	adc	r19, r23
    2158:	48 1f       	adc	r20, r24
    215a:	59 1f       	adc	r21, r25
    215c:	d6 01       	movw	r26, r12
    215e:	58 96       	adiw	r26, 0x18	; 24
    2160:	2d 93       	st	X+, r18
    2162:	3d 93       	st	X+, r19
    2164:	4d 93       	st	X+, r20
    2166:	5c 93       	st	X, r21
    2168:	5b 97       	sbiw	r26, 0x1b	; 27
    216a:	01 e0       	ldi	r16, 0x01	; 1
    216c:	10 e0       	ldi	r17, 0x00	; 0
    216e:	b1 01       	movw	r22, r2
    2170:	f3 01       	movw	r30, r6
    2172:	81 81       	ldd	r24, Z+1	; 0x01
    2174:	0e 94 a9 00 	call	0x152	; 0x152 <disk_read>
    2178:	81 11       	cpse	r24, r1
    217a:	05 c0       	rjmp	.+10     	; 0x2186 <f_open+0x376>
    217c:	06 c0       	rjmp	.+12     	; 0x218a <f_open+0x37a>
    217e:	68 94       	set
    2180:	ff 24       	eor	r15, r15
    2182:	f1 f8       	bld	r15, 1
    2184:	02 c0       	rjmp	.+4      	; 0x218a <f_open+0x37a>
    2186:	ff 24       	eor	r15, r15
    2188:	f3 94       	inc	r15
    218a:	ff 20       	and	r15, r15
    218c:	39 f0       	breq	.+14     	; 0x219c <f_open+0x38c>
    218e:	d6 01       	movw	r26, r12
    2190:	1d 92       	st	X+, r1
    2192:	1c 92       	st	X, r1
    2194:	8f 2d       	mov	r24, r15
    2196:	03 c0       	rjmp	.+6      	; 0x219e <f_open+0x38e>
    2198:	89 e0       	ldi	r24, 0x09	; 9
    219a:	01 c0       	rjmp	.+2      	; 0x219e <f_open+0x38e>
    219c:	8f 2d       	mov	r24, r15
    219e:	e0 96       	adiw	r28, 0x30	; 48
    21a0:	cd bf       	out	0x3d, r28	; 61
    21a2:	de bf       	out	0x3e, r29	; 62
    21a4:	df 91       	pop	r29
    21a6:	cf 91       	pop	r28
    21a8:	1f 91       	pop	r17
    21aa:	0f 91       	pop	r16
    21ac:	ff 90       	pop	r15
    21ae:	df 90       	pop	r13
    21b0:	cf 90       	pop	r12
    21b2:	bf 90       	pop	r11
    21b4:	af 90       	pop	r10
    21b6:	9f 90       	pop	r9
    21b8:	8f 90       	pop	r8
    21ba:	7f 90       	pop	r7
    21bc:	6f 90       	pop	r6
    21be:	5f 90       	pop	r5
    21c0:	4f 90       	pop	r4
    21c2:	3f 90       	pop	r3
    21c4:	2f 90       	pop	r2
    21c6:	08 95       	ret

000021c8 <f_write>:
	FIL* fp,			/* Open file to be written */
	const void* buff,	/* Data to be written */
	UINT btw,			/* Number of bytes to write */
	UINT* bw			/* Number of bytes written */
)
{
    21c8:	2f 92       	push	r2
    21ca:	3f 92       	push	r3
    21cc:	4f 92       	push	r4
    21ce:	5f 92       	push	r5
    21d0:	6f 92       	push	r6
    21d2:	7f 92       	push	r7
    21d4:	8f 92       	push	r8
    21d6:	9f 92       	push	r9
    21d8:	af 92       	push	r10
    21da:	bf 92       	push	r11
    21dc:	cf 92       	push	r12
    21de:	df 92       	push	r13
    21e0:	ef 92       	push	r14
    21e2:	ff 92       	push	r15
    21e4:	0f 93       	push	r16
    21e6:	1f 93       	push	r17
    21e8:	cf 93       	push	r28
    21ea:	df 93       	push	r29
    21ec:	cd b7       	in	r28, 0x3d	; 61
    21ee:	de b7       	in	r29, 0x3e	; 62
    21f0:	2a 97       	sbiw	r28, 0x0a	; 10
    21f2:	cd bf       	out	0x3d, r28	; 61
    21f4:	de bf       	out	0x3e, r29	; 62
    21f6:	7c 01       	movw	r14, r24
    21f8:	4b 01       	movw	r8, r22
    21fa:	6a 01       	movw	r12, r20
    21fc:	59 01       	movw	r10, r18
	LBA_t sect;
	UINT wcnt, cc, csect;
	const BYTE *wbuff = (const BYTE*)buff;


	*bw = 0;	/* Clear write byte counter */
    21fe:	d9 01       	movw	r26, r18
    2200:	1d 92       	st	X+, r1
    2202:	1c 92       	st	X, r1
	res = validate(&fp->obj, &fs);			/* Check validity of the file object */
    2204:	8f 83       	std	Y+7, r24	; 0x07
    2206:	f8 86       	std	Y+8, r15	; 0x08
    2208:	be 01       	movw	r22, r28
    220a:	6f 5f       	subi	r22, 0xFF	; 255
    220c:	7f 4f       	sbci	r23, 0xFF	; 255
    220e:	0e 94 df 01 	call	0x3be	; 0x3be <validate>
	if (res != FR_OK || (res = (FRESULT)fp->err) != FR_OK) LEAVE_FF(fs, res);	/* Check validity */
    2212:	81 11       	cpse	r24, r1
    2214:	b3 c1       	rjmp	.+870    	; 0x257c <f_write+0x3b4>
    2216:	f7 01       	movw	r30, r14
    2218:	87 85       	ldd	r24, Z+15	; 0x0f
    221a:	81 11       	cpse	r24, r1
    221c:	af c1       	rjmp	.+862    	; 0x257c <f_write+0x3b4>
	if (!(fp->flag & FA_WRITE)) LEAVE_FF(fs, FR_DENIED);	/* Check access mode */
    221e:	86 85       	ldd	r24, Z+14	; 0x0e
    2220:	81 ff       	sbrs	r24, 1
    2222:	ab c1       	rjmp	.+854    	; 0x257a <f_write+0x3b2>

	/* Check fptr wrap-around (file size cannot reach 4 GiB at FAT volume) */
	if ((!FF_FS_EXFAT || fs->fs_type != FS_EXFAT) && (DWORD)(fp->fptr + btw) < (DWORD)fp->fptr) {
    2224:	80 89       	ldd	r24, Z+16	; 0x10
    2226:	91 89       	ldd	r25, Z+17	; 0x11
    2228:	a2 89       	ldd	r26, Z+18	; 0x12
    222a:	b3 89       	ldd	r27, Z+19	; 0x13
    222c:	ac 01       	movw	r20, r24
    222e:	bd 01       	movw	r22, r26
    2230:	4c 0d       	add	r20, r12
    2232:	5d 1d       	adc	r21, r13
    2234:	61 1d       	adc	r22, r1
    2236:	71 1d       	adc	r23, r1
    2238:	48 17       	cp	r20, r24
    223a:	59 07       	cpc	r21, r25
    223c:	6a 07       	cpc	r22, r26
    223e:	7b 07       	cpc	r23, r27
    2240:	08 f0       	brcs	.+2      	; 0x2244 <f_write+0x7c>
    2242:	8e c1       	rjmp	.+796    	; 0x2560 <f_write+0x398>
		btw = (UINT)(0xFFFFFFFF - (DWORD)fp->fptr);
    2244:	6c 01       	movw	r12, r24
    2246:	c0 94       	com	r12
    2248:	d0 94       	com	r13
    224a:	8a c1       	rjmp	.+788    	; 0x2560 <f_write+0x398>
	}

	for ( ; btw > 0; btw -= wcnt, *bw += wcnt, wbuff += wcnt, fp->fptr += wcnt, fp->obj.objsize = (fp->fptr > fp->obj.objsize) ? fp->fptr : fp->obj.objsize) {	/* Repeat until all data written */
		if (fp->fptr % SS(fs) == 0) {		/* On the sector boundary? */
    224c:	f7 01       	movw	r30, r14
    224e:	80 89       	ldd	r24, Z+16	; 0x10
    2250:	91 89       	ldd	r25, Z+17	; 0x11
    2252:	a2 89       	ldd	r26, Z+18	; 0x12
    2254:	b3 89       	ldd	r27, Z+19	; 0x13
    2256:	ac 01       	movw	r20, r24
    2258:	bd 01       	movw	r22, r26
    225a:	51 70       	andi	r21, 0x01	; 1
    225c:	66 27       	eor	r22, r22
    225e:	77 27       	eor	r23, r23
    2260:	45 2b       	or	r20, r21
    2262:	46 2b       	or	r20, r22
    2264:	47 2b       	or	r20, r23
    2266:	09 f0       	breq	.+2      	; 0x226a <f_write+0xa2>
    2268:	34 c1       	rjmp	.+616    	; 0x24d2 <f_write+0x30a>
			csect = (UINT)(fp->fptr / SS(fs)) & (fs->csize - 1);	/* Sector offset in the cluster */
    226a:	e9 81       	ldd	r30, Y+1	; 0x01
    226c:	fa 81       	ldd	r31, Y+2	; 0x02
    226e:	61 84       	ldd	r6, Z+9	; 0x09
    2270:	72 84       	ldd	r7, Z+10	; 0x0a
    2272:	f1 e0       	ldi	r31, 0x01	; 1
    2274:	6f 1a       	sub	r6, r31
    2276:	71 08       	sbc	r7, r1
    2278:	ac 01       	movw	r20, r24
    227a:	bd 01       	movw	r22, r26
    227c:	03 2e       	mov	r0, r19
    227e:	39 e0       	ldi	r19, 0x09	; 9
    2280:	76 95       	lsr	r23
    2282:	67 95       	ror	r22
    2284:	57 95       	ror	r21
    2286:	47 95       	ror	r20
    2288:	3a 95       	dec	r19
    228a:	d1 f7       	brne	.-12     	; 0x2280 <f_write+0xb8>
    228c:	30 2d       	mov	r19, r0
    228e:	64 22       	and	r6, r20
    2290:	75 22       	and	r7, r21
			if (csect == 0) {				/* On the cluster boundary? */
    2292:	61 14       	cp	r6, r1
    2294:	71 04       	cpc	r7, r1
    2296:	09 f0       	breq	.+2      	; 0x229a <f_write+0xd2>
    2298:	51 c0       	rjmp	.+162    	; 0x233c <f_write+0x174>
				if (fp->fptr == 0) {		/* On the top of the file? */
    229a:	89 2b       	or	r24, r25
    229c:	8a 2b       	or	r24, r26
    229e:	8b 2b       	or	r24, r27
    22a0:	a1 f4       	brne	.+40     	; 0x22ca <f_write+0x102>
					clst = fp->obj.sclust;	/* Follow from the origin */
    22a2:	d7 01       	movw	r26, r14
    22a4:	16 96       	adiw	r26, 0x06	; 6
    22a6:	6d 91       	ld	r22, X+
    22a8:	7d 91       	ld	r23, X+
    22aa:	8d 91       	ld	r24, X+
    22ac:	9c 91       	ld	r25, X
    22ae:	19 97       	sbiw	r26, 0x09	; 9
					if (clst == 0) {		/* If no cluster is allocated, */
    22b0:	61 15       	cp	r22, r1
    22b2:	71 05       	cpc	r23, r1
    22b4:	81 05       	cpc	r24, r1
    22b6:	91 05       	cpc	r25, r1
    22b8:	89 f4       	brne	.+34     	; 0x22dc <f_write+0x114>
						clst = create_chain(&fp->obj, 0);	/* create a new cluster chain */
    22ba:	40 e0       	ldi	r20, 0x00	; 0
    22bc:	50 e0       	ldi	r21, 0x00	; 0
    22be:	ba 01       	movw	r22, r20
    22c0:	8f 81       	ldd	r24, Y+7	; 0x07
    22c2:	98 85       	ldd	r25, Y+8	; 0x08
    22c4:	0e 94 30 09 	call	0x1260	; 0x1260 <create_chain>
    22c8:	09 c0       	rjmp	.+18     	; 0x22dc <f_write+0x114>
					if (fp->cltbl) {
						clst = clmt_clust(fp, fp->fptr);	/* Get cluster# from the CLMT */
					} else
#endif
					{
						clst = create_chain(&fp->obj, fp->clust);	/* Follow or stretch cluster chain on the FAT */
    22ca:	f7 01       	movw	r30, r14
    22cc:	44 89       	ldd	r20, Z+20	; 0x14
    22ce:	55 89       	ldd	r21, Z+21	; 0x15
    22d0:	66 89       	ldd	r22, Z+22	; 0x16
    22d2:	77 89       	ldd	r23, Z+23	; 0x17
    22d4:	8f 81       	ldd	r24, Y+7	; 0x07
    22d6:	98 85       	ldd	r25, Y+8	; 0x08
    22d8:	0e 94 30 09 	call	0x1260	; 0x1260 <create_chain>
					}
				}
				if (clst == 0) break;		/* Could not allocate a new cluster (disk full) */
    22dc:	61 15       	cp	r22, r1
    22de:	71 05       	cpc	r23, r1
    22e0:	81 05       	cpc	r24, r1
    22e2:	91 05       	cpc	r25, r1
    22e4:	09 f4       	brne	.+2      	; 0x22e8 <f_write+0x120>
    22e6:	40 c1       	rjmp	.+640    	; 0x2568 <f_write+0x3a0>
				if (clst == 1) ABORT(fs, FR_INT_ERR);
    22e8:	61 30       	cpi	r22, 0x01	; 1
    22ea:	71 05       	cpc	r23, r1
    22ec:	81 05       	cpc	r24, r1
    22ee:	91 05       	cpc	r25, r1
    22f0:	29 f4       	brne	.+10     	; 0x22fc <f_write+0x134>
    22f2:	82 e0       	ldi	r24, 0x02	; 2
    22f4:	d7 01       	movw	r26, r14
    22f6:	1f 96       	adiw	r26, 0x0f	; 15
    22f8:	8c 93       	st	X, r24
    22fa:	40 c1       	rjmp	.+640    	; 0x257c <f_write+0x3b4>
				if (clst == 0xFFFFFFFF) ABORT(fs, FR_DISK_ERR);
    22fc:	6f 3f       	cpi	r22, 0xFF	; 255
    22fe:	bf ef       	ldi	r27, 0xFF	; 255
    2300:	7b 07       	cpc	r23, r27
    2302:	8b 07       	cpc	r24, r27
    2304:	9b 07       	cpc	r25, r27
    2306:	21 f4       	brne	.+8      	; 0x2310 <f_write+0x148>
    2308:	81 e0       	ldi	r24, 0x01	; 1
    230a:	f7 01       	movw	r30, r14
    230c:	87 87       	std	Z+15, r24	; 0x0f
    230e:	36 c1       	rjmp	.+620    	; 0x257c <f_write+0x3b4>
				fp->clust = clst;			/* Update current cluster */
    2310:	d7 01       	movw	r26, r14
    2312:	54 96       	adiw	r26, 0x14	; 20
    2314:	6d 93       	st	X+, r22
    2316:	7d 93       	st	X+, r23
    2318:	8d 93       	st	X+, r24
    231a:	9c 93       	st	X, r25
    231c:	57 97       	sbiw	r26, 0x17	; 23
				if (fp->obj.sclust == 0) fp->obj.sclust = clst;	/* Set start cluster if the first write */
    231e:	16 96       	adiw	r26, 0x06	; 6
    2320:	0d 91       	ld	r16, X+
    2322:	1d 91       	ld	r17, X+
    2324:	2d 91       	ld	r18, X+
    2326:	3c 91       	ld	r19, X
    2328:	19 97       	sbiw	r26, 0x09	; 9
    232a:	01 2b       	or	r16, r17
    232c:	02 2b       	or	r16, r18
    232e:	03 2b       	or	r16, r19
    2330:	29 f4       	brne	.+10     	; 0x233c <f_write+0x174>
    2332:	f7 01       	movw	r30, r14
    2334:	66 83       	std	Z+6, r22	; 0x06
    2336:	77 83       	std	Z+7, r23	; 0x07
    2338:	80 87       	std	Z+8, r24	; 0x08
    233a:	91 87       	std	Z+9, r25	; 0x09
			}
#if FF_FS_TINY
			if (fs->winsect == fp->sect && sync_window(fs) != FR_OK) ABORT(fs, FR_DISK_ERR);	/* Write-back sector cache */
#else
			if (fp->flag & FA_DIRTY) {		/* Write-back sector cache */
    233c:	d7 01       	movw	r26, r14
    233e:	1e 96       	adiw	r26, 0x0e	; 14
    2340:	8c 91       	ld	r24, X
    2342:	1e 97       	sbiw	r26, 0x0e	; 14
    2344:	88 23       	and	r24, r24
    2346:	ec f4       	brge	.+58     	; 0x2382 <f_write+0x1ba>
				if (disk_write(fs->pdrv, fp->buf, fp->sect, 1) != RES_OK) ABORT(fs, FR_DISK_ERR);
    2348:	e9 81       	ldd	r30, Y+1	; 0x01
    234a:	fa 81       	ldd	r31, Y+2	; 0x02
    234c:	58 96       	adiw	r26, 0x18	; 24
    234e:	2d 91       	ld	r18, X+
    2350:	3d 91       	ld	r19, X+
    2352:	4d 91       	ld	r20, X+
    2354:	5c 91       	ld	r21, X
    2356:	5b 97       	sbiw	r26, 0x1b	; 27
    2358:	01 e0       	ldi	r16, 0x01	; 1
    235a:	10 e0       	ldi	r17, 0x00	; 0
    235c:	b7 01       	movw	r22, r14
    235e:	6e 5d       	subi	r22, 0xDE	; 222
    2360:	7f 4f       	sbci	r23, 0xFF	; 255
    2362:	81 81       	ldd	r24, Z+1	; 0x01
    2364:	0e 94 b6 00 	call	0x16c	; 0x16c <disk_write>
    2368:	88 23       	and	r24, r24
    236a:	21 f0       	breq	.+8      	; 0x2374 <f_write+0x1ac>
    236c:	81 e0       	ldi	r24, 0x01	; 1
    236e:	f7 01       	movw	r30, r14
    2370:	87 87       	std	Z+15, r24	; 0x0f
    2372:	04 c1       	rjmp	.+520    	; 0x257c <f_write+0x3b4>
				fp->flag &= (BYTE)~FA_DIRTY;
    2374:	d7 01       	movw	r26, r14
    2376:	1e 96       	adiw	r26, 0x0e	; 14
    2378:	8c 91       	ld	r24, X
    237a:	1e 97       	sbiw	r26, 0x0e	; 14
    237c:	8f 77       	andi	r24, 0x7F	; 127
    237e:	1e 96       	adiw	r26, 0x0e	; 14
    2380:	8c 93       	st	X, r24
			}
#endif
			sect = clst2sect(fs, fp->clust);	/* Get current sector */
    2382:	f7 01       	movw	r30, r14
    2384:	44 89       	ldd	r20, Z+20	; 0x14
    2386:	55 89       	ldd	r21, Z+21	; 0x15
    2388:	66 89       	ldd	r22, Z+22	; 0x16
    238a:	77 89       	ldd	r23, Z+23	; 0x17
    238c:	29 81       	ldd	r18, Y+1	; 0x01
    238e:	3a 81       	ldd	r19, Y+2	; 0x02
    2390:	2d 83       	std	Y+5, r18	; 0x05
    2392:	3e 83       	std	Y+6, r19	; 0x06
    2394:	c9 01       	movw	r24, r18
    2396:	0e 94 27 01 	call	0x24e	; 0x24e <clst2sect>
			if (sect == 0) ABORT(fs, FR_INT_ERR);
    239a:	61 15       	cp	r22, r1
    239c:	71 05       	cpc	r23, r1
    239e:	81 05       	cpc	r24, r1
    23a0:	91 05       	cpc	r25, r1
    23a2:	29 f4       	brne	.+10     	; 0x23ae <f_write+0x1e6>
    23a4:	82 e0       	ldi	r24, 0x02	; 2
    23a6:	d7 01       	movw	r26, r14
    23a8:	1f 96       	adiw	r26, 0x0f	; 15
    23aa:	8c 93       	st	X, r24
    23ac:	e7 c0       	rjmp	.+462    	; 0x257c <f_write+0x3b4>
			sect += csect;
    23ae:	1b 01       	movw	r2, r22
    23b0:	2c 01       	movw	r4, r24
    23b2:	26 0c       	add	r2, r6
    23b4:	37 1c       	adc	r3, r7
    23b6:	41 1c       	adc	r4, r1
    23b8:	51 1c       	adc	r5, r1
			cc = btw / SS(fs);				/* When remaining bytes >= sector size, */
    23ba:	f6 01       	movw	r30, r12
    23bc:	ef 2f       	mov	r30, r31
    23be:	ff 27       	eor	r31, r31
    23c0:	e6 95       	lsr	r30
    23c2:	eb 83       	std	Y+3, r30	; 0x03
    23c4:	fc 83       	std	Y+4, r31	; 0x04
			if (cc > 0) {					/* Write maximum contiguous sectors directly */
    23c6:	30 97       	sbiw	r30, 0x00	; 0
    23c8:	09 f4       	brne	.+2      	; 0x23cc <f_write+0x204>
    23ca:	52 c0       	rjmp	.+164    	; 0x2470 <f_write+0x2a8>
				if (csect + cc > fs->csize) {	/* Clip at cluster boundary */
    23cc:	ad 81       	ldd	r26, Y+5	; 0x05
    23ce:	be 81       	ldd	r27, Y+6	; 0x06
    23d0:	19 96       	adiw	r26, 0x09	; 9
    23d2:	2d 91       	ld	r18, X+
    23d4:	3c 91       	ld	r19, X
    23d6:	1a 97       	sbiw	r26, 0x0a	; 10
    23d8:	cf 01       	movw	r24, r30
    23da:	86 0d       	add	r24, r6
    23dc:	97 1d       	adc	r25, r7
    23de:	28 17       	cp	r18, r24
    23e0:	39 07       	cpc	r19, r25
    23e2:	28 f4       	brcc	.+10     	; 0x23ee <f_write+0x226>
					cc = fs->csize - csect;
    23e4:	f9 01       	movw	r30, r18
    23e6:	e6 19       	sub	r30, r6
    23e8:	f7 09       	sbc	r31, r7
    23ea:	eb 83       	std	Y+3, r30	; 0x03
    23ec:	fc 83       	std	Y+4, r31	; 0x04
				}
				if (disk_write(fs->pdrv, wbuff, sect, cc) != RES_OK) ABORT(fs, FR_DISK_ERR);
    23ee:	0b 81       	ldd	r16, Y+3	; 0x03
    23f0:	1c 81       	ldd	r17, Y+4	; 0x04
    23f2:	a2 01       	movw	r20, r4
    23f4:	91 01       	movw	r18, r2
    23f6:	b4 01       	movw	r22, r8
    23f8:	ad 81       	ldd	r26, Y+5	; 0x05
    23fa:	be 81       	ldd	r27, Y+6	; 0x06
    23fc:	11 96       	adiw	r26, 0x01	; 1
    23fe:	8c 91       	ld	r24, X
    2400:	0e 94 b6 00 	call	0x16c	; 0x16c <disk_write>
    2404:	88 23       	and	r24, r24
    2406:	21 f0       	breq	.+8      	; 0x2410 <f_write+0x248>
    2408:	81 e0       	ldi	r24, 0x01	; 1
    240a:	f7 01       	movw	r30, r14
    240c:	87 87       	std	Z+15, r24	; 0x0f
    240e:	b6 c0       	rjmp	.+364    	; 0x257c <f_write+0x3b4>
				if (fs->winsect - sect < cc) {	/* Refill sector cache if it gets invalidated by the direct write */
					memcpy(fs->win, wbuff + ((fs->winsect - sect) * SS(fs)), SS(fs));
					fs->wflag = 0;
				}
#else
				if (fp->sect - sect < cc) { /* Refill sector cache if it gets invalidated by the direct write */
    2410:	f7 01       	movw	r30, r14
    2412:	80 8d       	ldd	r24, Z+24	; 0x18
    2414:	91 8d       	ldd	r25, Z+25	; 0x19
    2416:	a2 8d       	ldd	r26, Z+26	; 0x1a
    2418:	b3 8d       	ldd	r27, Z+27	; 0x1b
    241a:	82 19       	sub	r24, r2
    241c:	93 09       	sbc	r25, r3
    241e:	a4 09       	sbc	r26, r4
    2420:	b5 09       	sbc	r27, r5
    2422:	2b 81       	ldd	r18, Y+3	; 0x03
    2424:	3c 81       	ldd	r19, Y+4	; 0x04
    2426:	a9 01       	movw	r20, r18
    2428:	60 e0       	ldi	r22, 0x00	; 0
    242a:	70 e0       	ldi	r23, 0x00	; 0
    242c:	84 17       	cp	r24, r20
    242e:	95 07       	cpc	r25, r21
    2430:	a6 07       	cpc	r26, r22
    2432:	b7 07       	cpc	r27, r23
    2434:	b8 f4       	brcc	.+46     	; 0x2464 <f_write+0x29c>
					memcpy(fp->buf, wbuff + ((fp->sect - sect) * SS(fs)), SS(fs));
    2436:	38 2f       	mov	r19, r24
    2438:	33 0f       	add	r19, r19
    243a:	3a 87       	std	Y+10, r19	; 0x0a
    243c:	19 86       	std	Y+9, r1	; 0x09
    243e:	e9 85       	ldd	r30, Y+9	; 0x09
    2440:	fa 85       	ldd	r31, Y+10	; 0x0a
    2442:	e8 0d       	add	r30, r8
    2444:	f9 1d       	adc	r31, r9
    2446:	80 e0       	ldi	r24, 0x00	; 0
    2448:	92 e0       	ldi	r25, 0x02	; 2
    244a:	d7 01       	movw	r26, r14
    244c:	92 96       	adiw	r26, 0x22	; 34
    244e:	01 90       	ld	r0, Z+
    2450:	0d 92       	st	X+, r0
    2452:	01 97       	sbiw	r24, 0x01	; 1
    2454:	e1 f7       	brne	.-8      	; 0x244e <f_write+0x286>
					fp->flag &= (BYTE)~FA_DIRTY;
    2456:	d7 01       	movw	r26, r14
    2458:	1e 96       	adiw	r26, 0x0e	; 14
    245a:	8c 91       	ld	r24, X
    245c:	1e 97       	sbiw	r26, 0x0e	; 14
    245e:	8f 77       	andi	r24, 0x7F	; 127
    2460:	1e 96       	adiw	r26, 0x0e	; 14
    2462:	8c 93       	st	X, r24
				}
#endif
#endif
				wcnt = SS(fs) * cc;		/* Number of bytes transferred */
    2464:	6b 80       	ldd	r6, Y+3	; 0x03
    2466:	7c 80       	ldd	r7, Y+4	; 0x04
    2468:	76 2c       	mov	r7, r6
    246a:	66 24       	eor	r6, r6
    246c:	77 0c       	add	r7, r7
				continue;
    246e:	50 c0       	rjmp	.+160    	; 0x2510 <f_write+0x348>
			if (fp->fptr >= fp->obj.objsize) {	/* Avoid silly cache filling on the growing edge */
				if (sync_window(fs) != FR_OK) ABORT(fs, FR_DISK_ERR);
				fs->winsect = sect;
			}
#else
			if (fp->sect != sect && 		/* Fill sector cache with file data */
    2470:	f7 01       	movw	r30, r14
    2472:	80 8d       	ldd	r24, Z+24	; 0x18
    2474:	91 8d       	ldd	r25, Z+25	; 0x19
    2476:	a2 8d       	ldd	r26, Z+26	; 0x1a
    2478:	b3 8d       	ldd	r27, Z+27	; 0x1b
    247a:	28 16       	cp	r2, r24
    247c:	39 06       	cpc	r3, r25
    247e:	4a 06       	cpc	r4, r26
    2480:	5b 06       	cpc	r5, r27
    2482:	01 f1       	breq	.+64     	; 0x24c4 <f_write+0x2fc>
				fp->fptr < fp->obj.objsize &&
    2484:	40 89       	ldd	r20, Z+16	; 0x10
    2486:	51 89       	ldd	r21, Z+17	; 0x11
    2488:	62 89       	ldd	r22, Z+18	; 0x12
    248a:	73 89       	ldd	r23, Z+19	; 0x13
    248c:	82 85       	ldd	r24, Z+10	; 0x0a
    248e:	93 85       	ldd	r25, Z+11	; 0x0b
    2490:	a4 85       	ldd	r26, Z+12	; 0x0c
    2492:	b5 85       	ldd	r27, Z+13	; 0x0d
			if (fp->fptr >= fp->obj.objsize) {	/* Avoid silly cache filling on the growing edge */
				if (sync_window(fs) != FR_OK) ABORT(fs, FR_DISK_ERR);
				fs->winsect = sect;
			}
#else
			if (fp->sect != sect && 		/* Fill sector cache with file data */
    2494:	48 17       	cp	r20, r24
    2496:	59 07       	cpc	r21, r25
    2498:	6a 07       	cpc	r22, r26
    249a:	7b 07       	cpc	r23, r27
    249c:	98 f4       	brcc	.+38     	; 0x24c4 <f_write+0x2fc>
				fp->fptr < fp->obj.objsize &&
				disk_read(fs->pdrv, fp->buf, sect, 1) != RES_OK) {
    249e:	01 e0       	ldi	r16, 0x01	; 1
    24a0:	10 e0       	ldi	r17, 0x00	; 0
    24a2:	a2 01       	movw	r20, r4
    24a4:	91 01       	movw	r18, r2
    24a6:	b7 01       	movw	r22, r14
    24a8:	6e 5d       	subi	r22, 0xDE	; 222
    24aa:	7f 4f       	sbci	r23, 0xFF	; 255
    24ac:	ad 81       	ldd	r26, Y+5	; 0x05
    24ae:	be 81       	ldd	r27, Y+6	; 0x06
    24b0:	11 96       	adiw	r26, 0x01	; 1
    24b2:	8c 91       	ld	r24, X
    24b4:	0e 94 a9 00 	call	0x152	; 0x152 <disk_read>
				if (sync_window(fs) != FR_OK) ABORT(fs, FR_DISK_ERR);
				fs->winsect = sect;
			}
#else
			if (fp->sect != sect && 		/* Fill sector cache with file data */
				fp->fptr < fp->obj.objsize &&
    24b8:	88 23       	and	r24, r24
    24ba:	21 f0       	breq	.+8      	; 0x24c4 <f_write+0x2fc>
				disk_read(fs->pdrv, fp->buf, sect, 1) != RES_OK) {
					ABORT(fs, FR_DISK_ERR);
    24bc:	81 e0       	ldi	r24, 0x01	; 1
    24be:	f7 01       	movw	r30, r14
    24c0:	87 87       	std	Z+15, r24	; 0x0f
    24c2:	5c c0       	rjmp	.+184    	; 0x257c <f_write+0x3b4>
			}
#endif
			fp->sect = sect;
    24c4:	d7 01       	movw	r26, r14
    24c6:	58 96       	adiw	r26, 0x18	; 24
    24c8:	2d 92       	st	X+, r2
    24ca:	3d 92       	st	X+, r3
    24cc:	4d 92       	st	X+, r4
    24ce:	5c 92       	st	X, r5
    24d0:	5b 97       	sbiw	r26, 0x1b	; 27
		}
		wcnt = SS(fs) - (UINT)fp->fptr % SS(fs);	/* Number of bytes remains in the sector */
    24d2:	f7 01       	movw	r30, r14
    24d4:	80 89       	ldd	r24, Z+16	; 0x10
    24d6:	91 89       	ldd	r25, Z+17	; 0x11
    24d8:	a2 89       	ldd	r26, Z+18	; 0x12
    24da:	b3 89       	ldd	r27, Z+19	; 0x13
    24dc:	91 70       	andi	r25, 0x01	; 1
    24de:	20 e0       	ldi	r18, 0x00	; 0
    24e0:	32 e0       	ldi	r19, 0x02	; 2
    24e2:	39 01       	movw	r6, r18
    24e4:	68 1a       	sub	r6, r24
    24e6:	79 0a       	sbc	r7, r25
		if (wcnt > btw) wcnt = btw;					/* Clip it by btw if needed */
    24e8:	c6 14       	cp	r12, r6
    24ea:	d7 04       	cpc	r13, r7
    24ec:	08 f4       	brcc	.+2      	; 0x24f0 <f_write+0x328>
    24ee:	36 01       	movw	r6, r12
#if FF_FS_TINY
		if (move_window(fs, fp->sect) != FR_OK) ABORT(fs, FR_DISK_ERR);	/* Move sector window */
		memcpy(fs->win + fp->fptr % SS(fs), wbuff, wcnt);	/* Fit data to the sector */
		fs->wflag = 1;
#else
		memcpy(fp->buf + fp->fptr % SS(fs), wbuff, wcnt);	/* Fit data to the sector */
    24f0:	a3 01       	movw	r20, r6
    24f2:	b4 01       	movw	r22, r8
    24f4:	97 01       	movw	r18, r14
    24f6:	2e 5d       	subi	r18, 0xDE	; 222
    24f8:	3f 4f       	sbci	r19, 0xFF	; 255
    24fa:	82 0f       	add	r24, r18
    24fc:	93 1f       	adc	r25, r19
    24fe:	0e 94 2b 19 	call	0x3256	; 0x3256 <memcpy>
		fp->flag |= FA_DIRTY;
    2502:	d7 01       	movw	r26, r14
    2504:	1e 96       	adiw	r26, 0x0e	; 14
    2506:	8c 91       	ld	r24, X
    2508:	1e 97       	sbiw	r26, 0x0e	; 14
    250a:	80 68       	ori	r24, 0x80	; 128
    250c:	1e 96       	adiw	r26, 0x0e	; 14
    250e:	8c 93       	st	X, r24
	/* Check fptr wrap-around (file size cannot reach 4 GiB at FAT volume) */
	if ((!FF_FS_EXFAT || fs->fs_type != FS_EXFAT) && (DWORD)(fp->fptr + btw) < (DWORD)fp->fptr) {
		btw = (UINT)(0xFFFFFFFF - (DWORD)fp->fptr);
	}

	for ( ; btw > 0; btw -= wcnt, *bw += wcnt, wbuff += wcnt, fp->fptr += wcnt, fp->obj.objsize = (fp->fptr > fp->obj.objsize) ? fp->fptr : fp->obj.objsize) {	/* Repeat until all data written */
    2510:	c6 18       	sub	r12, r6
    2512:	d7 08       	sbc	r13, r7
    2514:	f5 01       	movw	r30, r10
    2516:	80 81       	ld	r24, Z
    2518:	91 81       	ldd	r25, Z+1	; 0x01
    251a:	86 0d       	add	r24, r6
    251c:	97 1d       	adc	r25, r7
    251e:	80 83       	st	Z, r24
    2520:	91 83       	std	Z+1, r25	; 0x01
    2522:	86 0c       	add	r8, r6
    2524:	97 1c       	adc	r9, r7
    2526:	f7 01       	movw	r30, r14
    2528:	80 89       	ldd	r24, Z+16	; 0x10
    252a:	91 89       	ldd	r25, Z+17	; 0x11
    252c:	a2 89       	ldd	r26, Z+18	; 0x12
    252e:	b3 89       	ldd	r27, Z+19	; 0x13
    2530:	86 0d       	add	r24, r6
    2532:	97 1d       	adc	r25, r7
    2534:	a1 1d       	adc	r26, r1
    2536:	b1 1d       	adc	r27, r1
    2538:	80 8b       	std	Z+16, r24	; 0x10
    253a:	91 8b       	std	Z+17, r25	; 0x11
    253c:	a2 8b       	std	Z+18, r26	; 0x12
    253e:	b3 8b       	std	Z+19, r27	; 0x13
    2540:	42 85       	ldd	r20, Z+10	; 0x0a
    2542:	53 85       	ldd	r21, Z+11	; 0x0b
    2544:	64 85       	ldd	r22, Z+12	; 0x0c
    2546:	75 85       	ldd	r23, Z+13	; 0x0d
    2548:	84 17       	cp	r24, r20
    254a:	95 07       	cpc	r25, r21
    254c:	a6 07       	cpc	r26, r22
    254e:	b7 07       	cpc	r27, r23
    2550:	10 f4       	brcc	.+4      	; 0x2556 <f_write+0x38e>
    2552:	db 01       	movw	r26, r22
    2554:	ca 01       	movw	r24, r20
    2556:	f7 01       	movw	r30, r14
    2558:	82 87       	std	Z+10, r24	; 0x0a
    255a:	93 87       	std	Z+11, r25	; 0x0b
    255c:	a4 87       	std	Z+12, r26	; 0x0c
    255e:	b5 87       	std	Z+13, r27	; 0x0d
    2560:	c1 14       	cp	r12, r1
    2562:	d1 04       	cpc	r13, r1
    2564:	09 f0       	breq	.+2      	; 0x2568 <f_write+0x3a0>
    2566:	72 ce       	rjmp	.-796    	; 0x224c <f_write+0x84>
		memcpy(fp->buf + fp->fptr % SS(fs), wbuff, wcnt);	/* Fit data to the sector */
		fp->flag |= FA_DIRTY;
#endif
	}

	fp->flag |= FA_MODIFIED;				/* Set file change flag */
    2568:	d7 01       	movw	r26, r14
    256a:	1e 96       	adiw	r26, 0x0e	; 14
    256c:	8c 91       	ld	r24, X
    256e:	1e 97       	sbiw	r26, 0x0e	; 14
    2570:	80 64       	ori	r24, 0x40	; 64
    2572:	1e 96       	adiw	r26, 0x0e	; 14
    2574:	8c 93       	st	X, r24

	LEAVE_FF(fs, FR_OK);
    2576:	80 e0       	ldi	r24, 0x00	; 0
    2578:	01 c0       	rjmp	.+2      	; 0x257c <f_write+0x3b4>


	*bw = 0;	/* Clear write byte counter */
	res = validate(&fp->obj, &fs);			/* Check validity of the file object */
	if (res != FR_OK || (res = (FRESULT)fp->err) != FR_OK) LEAVE_FF(fs, res);	/* Check validity */
	if (!(fp->flag & FA_WRITE)) LEAVE_FF(fs, FR_DENIED);	/* Check access mode */
    257a:	87 e0       	ldi	r24, 0x07	; 7
	}

	fp->flag |= FA_MODIFIED;				/* Set file change flag */

	LEAVE_FF(fs, FR_OK);
}
    257c:	2a 96       	adiw	r28, 0x0a	; 10
    257e:	cd bf       	out	0x3d, r28	; 61
    2580:	de bf       	out	0x3e, r29	; 62
    2582:	df 91       	pop	r29
    2584:	cf 91       	pop	r28
    2586:	1f 91       	pop	r17
    2588:	0f 91       	pop	r16
    258a:	ff 90       	pop	r15
    258c:	ef 90       	pop	r14
    258e:	df 90       	pop	r13
    2590:	cf 90       	pop	r12
    2592:	bf 90       	pop	r11
    2594:	af 90       	pop	r10
    2596:	9f 90       	pop	r9
    2598:	8f 90       	pop	r8
    259a:	7f 90       	pop	r7
    259c:	6f 90       	pop	r6
    259e:	5f 90       	pop	r5
    25a0:	4f 90       	pop	r4
    25a2:	3f 90       	pop	r3
    25a4:	2f 90       	pop	r2
    25a6:	08 95       	ret

000025a8 <f_sync>:
/*-----------------------------------------------------------------------*/

FRESULT f_sync (
	FIL* fp		/* Open file to be synced */
)
{
    25a8:	ef 92       	push	r14
    25aa:	ff 92       	push	r15
    25ac:	0f 93       	push	r16
    25ae:	1f 93       	push	r17
    25b0:	cf 93       	push	r28
    25b2:	df 93       	push	r29
    25b4:	00 d0       	rcall	.+0      	; 0x25b6 <f_sync+0xe>
    25b6:	cd b7       	in	r28, 0x3d	; 61
    25b8:	de b7       	in	r29, 0x3e	; 62
    25ba:	7c 01       	movw	r14, r24
	FATFS *fs;
	DWORD tm;
	BYTE *dir;


	res = validate(&fp->obj, &fs);	/* Check validity of the file object */
    25bc:	be 01       	movw	r22, r28
    25be:	6f 5f       	subi	r22, 0xFF	; 255
    25c0:	7f 4f       	sbci	r23, 0xFF	; 255
    25c2:	0e 94 df 01 	call	0x3be	; 0x3be <validate>
	if (res == FR_OK) {
    25c6:	81 11       	cpse	r24, r1
    25c8:	63 c0       	rjmp	.+198    	; 0x2690 <f_sync+0xe8>
		if (fp->flag & FA_MODIFIED) {	/* Is there any change to the file? */
    25ca:	d7 01       	movw	r26, r14
    25cc:	1e 96       	adiw	r26, 0x0e	; 14
    25ce:	9c 91       	ld	r25, X
    25d0:	1e 97       	sbiw	r26, 0x0e	; 14
    25d2:	96 ff       	sbrs	r25, 6
    25d4:	5d c0       	rjmp	.+186    	; 0x2690 <f_sync+0xe8>
#if !FF_FS_TINY
			if (fp->flag & FA_DIRTY) {	/* Write-back cached data if needed */
    25d6:	99 23       	and	r25, r25
    25d8:	b4 f4       	brge	.+44     	; 0x2606 <f_sync+0x5e>
				if (disk_write(fs->pdrv, fp->buf, fp->sect, 1) != RES_OK) LEAVE_FF(fs, FR_DISK_ERR);
    25da:	e9 81       	ldd	r30, Y+1	; 0x01
    25dc:	fa 81       	ldd	r31, Y+2	; 0x02
    25de:	58 96       	adiw	r26, 0x18	; 24
    25e0:	2d 91       	ld	r18, X+
    25e2:	3d 91       	ld	r19, X+
    25e4:	4d 91       	ld	r20, X+
    25e6:	5c 91       	ld	r21, X
    25e8:	5b 97       	sbiw	r26, 0x1b	; 27
    25ea:	01 e0       	ldi	r16, 0x01	; 1
    25ec:	10 e0       	ldi	r17, 0x00	; 0
    25ee:	b7 01       	movw	r22, r14
    25f0:	6e 5d       	subi	r22, 0xDE	; 222
    25f2:	7f 4f       	sbci	r23, 0xFF	; 255
    25f4:	81 81       	ldd	r24, Z+1	; 0x01
    25f6:	0e 94 b6 00 	call	0x16c	; 0x16c <disk_write>
    25fa:	81 11       	cpse	r24, r1
    25fc:	48 c0       	rjmp	.+144    	; 0x268e <f_sync+0xe6>
				fp->flag &= (BYTE)~FA_DIRTY;
    25fe:	f7 01       	movw	r30, r14
    2600:	86 85       	ldd	r24, Z+14	; 0x0e
    2602:	8f 77       	andi	r24, 0x7F	; 127
    2604:	86 87       	std	Z+14, r24	; 0x0e
					FREE_NAMBUF();
				}
			} else
#endif
			{
				res = move_window(fs, fp->dir_sect);
    2606:	d7 01       	movw	r26, r14
    2608:	5c 96       	adiw	r26, 0x1c	; 28
    260a:	4d 91       	ld	r20, X+
    260c:	5d 91       	ld	r21, X+
    260e:	6d 91       	ld	r22, X+
    2610:	7c 91       	ld	r23, X
    2612:	5f 97       	sbiw	r26, 0x1f	; 31
    2614:	89 81       	ldd	r24, Y+1	; 0x01
    2616:	9a 81       	ldd	r25, Y+2	; 0x02
    2618:	0e 94 6e 02 	call	0x4dc	; 0x4dc <move_window>
				if (res == FR_OK) {
    261c:	81 11       	cpse	r24, r1
    261e:	38 c0       	rjmp	.+112    	; 0x2690 <f_sync+0xe8>
					dir = fp->dir_ptr;
    2620:	f7 01       	movw	r30, r14
    2622:	00 a1       	ldd	r16, Z+32	; 0x20
    2624:	11 a1       	ldd	r17, Z+33	; 0x21
					dir[DIR_Attr] |= AM_ARC;						/* Set archive attribute to indicate that the file has been changed */
    2626:	d8 01       	movw	r26, r16
    2628:	1b 96       	adiw	r26, 0x0b	; 11
    262a:	8c 91       	ld	r24, X
    262c:	1b 97       	sbiw	r26, 0x0b	; 11
    262e:	80 62       	ori	r24, 0x20	; 32
    2630:	1b 96       	adiw	r26, 0x0b	; 11
    2632:	8c 93       	st	X, r24
					st_clust(fp->obj.fs, dir, fp->obj.sclust);		/* Update file allocation information  */
    2634:	26 81       	ldd	r18, Z+6	; 0x06
    2636:	37 81       	ldd	r19, Z+7	; 0x07
    2638:	40 85       	ldd	r20, Z+8	; 0x08
    263a:	51 85       	ldd	r21, Z+9	; 0x09
    263c:	b8 01       	movw	r22, r16
    263e:	80 81       	ld	r24, Z
    2640:	91 81       	ldd	r25, Z+1	; 0x01
    2642:	0e 94 82 01 	call	0x304	; 0x304 <st_clust>
					st_dword(dir + DIR_FileSize, (DWORD)fp->obj.objsize);	/* Update file size */
    2646:	f7 01       	movw	r30, r14
    2648:	42 85       	ldd	r20, Z+10	; 0x0a
    264a:	53 85       	ldd	r21, Z+11	; 0x0b
    264c:	64 85       	ldd	r22, Z+12	; 0x0c
    264e:	75 85       	ldd	r23, Z+13	; 0x0d
    2650:	c8 01       	movw	r24, r16
    2652:	4c 96       	adiw	r24, 0x1c	; 28
    2654:	0e 94 f1 00 	call	0x1e2	; 0x1e2 <st_dword>
					st_dword(dir + DIR_ModTime, tm);				/* Update modified time */
    2658:	40 e0       	ldi	r20, 0x00	; 0
    265a:	50 e0       	ldi	r21, 0x00	; 0
    265c:	61 e2       	ldi	r22, 0x21	; 33
    265e:	70 e5       	ldi	r23, 0x50	; 80
    2660:	c8 01       	movw	r24, r16
    2662:	46 96       	adiw	r24, 0x16	; 22
    2664:	0e 94 f1 00 	call	0x1e2	; 0x1e2 <st_dword>
					st_word(dir + DIR_LstAccDate, 0);
    2668:	60 e0       	ldi	r22, 0x00	; 0
    266a:	70 e0       	ldi	r23, 0x00	; 0
    266c:	c8 01       	movw	r24, r16
    266e:	42 96       	adiw	r24, 0x12	; 18
    2670:	0e 94 ed 00 	call	0x1da	; 0x1da <st_word>
					fs->wflag = 1;
    2674:	89 81       	ldd	r24, Y+1	; 0x01
    2676:	9a 81       	ldd	r25, Y+2	; 0x02
    2678:	21 e0       	ldi	r18, 0x01	; 1
    267a:	dc 01       	movw	r26, r24
    267c:	13 96       	adiw	r26, 0x03	; 3
    267e:	2c 93       	st	X, r18
					res = sync_fs(fs);					/* Restore it to the directory */
    2680:	0e 94 53 0e 	call	0x1ca6	; 0x1ca6 <sync_fs>
					fp->flag &= (BYTE)~FA_MODIFIED;
    2684:	f7 01       	movw	r30, r14
    2686:	96 85       	ldd	r25, Z+14	; 0x0e
    2688:	9f 7b       	andi	r25, 0xBF	; 191
    268a:	96 87       	std	Z+14, r25	; 0x0e
    268c:	01 c0       	rjmp	.+2      	; 0x2690 <f_sync+0xe8>
	res = validate(&fp->obj, &fs);	/* Check validity of the file object */
	if (res == FR_OK) {
		if (fp->flag & FA_MODIFIED) {	/* Is there any change to the file? */
#if !FF_FS_TINY
			if (fp->flag & FA_DIRTY) {	/* Write-back cached data if needed */
				if (disk_write(fs->pdrv, fp->buf, fp->sect, 1) != RES_OK) LEAVE_FF(fs, FR_DISK_ERR);
    268e:	81 e0       	ldi	r24, 0x01	; 1
			}
		}
	}

	LEAVE_FF(fs, res);
}
    2690:	0f 90       	pop	r0
    2692:	0f 90       	pop	r0
    2694:	df 91       	pop	r29
    2696:	cf 91       	pop	r28
    2698:	1f 91       	pop	r17
    269a:	0f 91       	pop	r16
    269c:	ff 90       	pop	r15
    269e:	ef 90       	pop	r14
    26a0:	08 95       	ret

000026a2 <f_close>:
/*-----------------------------------------------------------------------*/

FRESULT f_close (
	FIL* fp		/* Open file to be closed */
)
{
    26a2:	0f 93       	push	r16
    26a4:	1f 93       	push	r17
    26a6:	cf 93       	push	r28
    26a8:	df 93       	push	r29
    26aa:	00 d0       	rcall	.+0      	; 0x26ac <f_close+0xa>
    26ac:	cd b7       	in	r28, 0x3d	; 61
    26ae:	de b7       	in	r29, 0x3e	; 62
    26b0:	8c 01       	movw	r16, r24
	FRESULT res;
	FATFS *fs;

#if !FF_FS_READONLY
	res = f_sync(fp);					/* Flush cached data */
    26b2:	0e 94 d4 12 	call	0x25a8	; 0x25a8 <f_sync>
	if (res == FR_OK)
    26b6:	81 11       	cpse	r24, r1
    26b8:	0b c0       	rjmp	.+22     	; 0x26d0 <f_close+0x2e>
#endif
	{
		res = validate(&fp->obj, &fs);	/* Lock volume */
    26ba:	be 01       	movw	r22, r28
    26bc:	6f 5f       	subi	r22, 0xFF	; 255
    26be:	7f 4f       	sbci	r23, 0xFF	; 255
    26c0:	c8 01       	movw	r24, r16
    26c2:	0e 94 df 01 	call	0x3be	; 0x3be <validate>
		if (res == FR_OK) {
    26c6:	81 11       	cpse	r24, r1
    26c8:	03 c0       	rjmp	.+6      	; 0x26d0 <f_close+0x2e>
#if FF_FS_LOCK != 0
			res = dec_lock(fp->obj.lockid);		/* Decrement file open counter */
			if (res == FR_OK) fp->obj.fs = 0;	/* Invalidate file object */
#else
			fp->obj.fs = 0;	/* Invalidate file object */
    26ca:	f8 01       	movw	r30, r16
    26cc:	10 82       	st	Z, r1
    26ce:	11 82       	std	Z+1, r1	; 0x01
			unlock_fs(fs, FR_OK);		/* Unlock volume */
#endif
		}
	}
	return res;
}
    26d0:	0f 90       	pop	r0
    26d2:	0f 90       	pop	r0
    26d4:	df 91       	pop	r29
    26d6:	cf 91       	pop	r28
    26d8:	1f 91       	pop	r17
    26da:	0f 91       	pop	r16
    26dc:	08 95       	ret

000026de <xchg_spi>:
	default:
		res = RES_PARERR;
	}

	return res;
}
    26de:	80 93 44 09 	sts	0x0944, r24	; 0x800944 <__TEXT_REGION_LENGTH__+0x7e0944>
    26e2:	80 91 43 09 	lds	r24, 0x0943	; 0x800943 <__TEXT_REGION_LENGTH__+0x7e0943>
    26e6:	88 23       	and	r24, r24
    26e8:	e4 f7       	brge	.-8      	; 0x26e2 <xchg_spi+0x4>
    26ea:	80 91 44 09 	lds	r24, 0x0944	; 0x800944 <__TEXT_REGION_LENGTH__+0x7e0944>
    26ee:	08 95       	ret

000026f0 <rcvr_spi_multi>:
    26f0:	fc 01       	movw	r30, r24
    26f2:	01 c0       	rjmp	.+2      	; 0x26f6 <rcvr_spi_multi+0x6>
    26f4:	f9 01       	movw	r30, r18
    26f6:	8f ef       	ldi	r24, 0xFF	; 255
    26f8:	80 93 44 09 	sts	0x0944, r24	; 0x800944 <__TEXT_REGION_LENGTH__+0x7e0944>
    26fc:	90 91 43 09 	lds	r25, 0x0943	; 0x800943 <__TEXT_REGION_LENGTH__+0x7e0943>
    2700:	99 23       	and	r25, r25
    2702:	e4 f7       	brge	.-8      	; 0x26fc <rcvr_spi_multi+0xc>
    2704:	a0 e4       	ldi	r26, 0x40	; 64
    2706:	b9 e0       	ldi	r27, 0x09	; 9
    2708:	14 96       	adiw	r26, 0x04	; 4
    270a:	8c 91       	ld	r24, X
    270c:	14 97       	sbiw	r26, 0x04	; 4
    270e:	80 83       	st	Z, r24
    2710:	8f ef       	ldi	r24, 0xFF	; 255
    2712:	14 96       	adiw	r26, 0x04	; 4
    2714:	8c 93       	st	X, r24
    2716:	90 91 43 09 	lds	r25, 0x0943	; 0x800943 <__TEXT_REGION_LENGTH__+0x7e0943>
    271a:	99 23       	and	r25, r25
    271c:	e4 f7       	brge	.-8      	; 0x2716 <rcvr_spi_multi+0x26>
    271e:	9f 01       	movw	r18, r30
    2720:	2e 5f       	subi	r18, 0xFE	; 254
    2722:	3f 4f       	sbci	r19, 0xFF	; 255
    2724:	80 91 44 09 	lds	r24, 0x0944	; 0x800944 <__TEXT_REGION_LENGTH__+0x7e0944>
    2728:	81 83       	std	Z+1, r24	; 0x01
    272a:	62 50       	subi	r22, 0x02	; 2
    272c:	71 09       	sbc	r23, r1
    272e:	11 f7       	brne	.-60     	; 0x26f4 <rcvr_spi_multi+0x4>
    2730:	08 95       	ret

00002732 <xmit_spi_multi>:
    2732:	fc 01       	movw	r30, r24
    2734:	01 c0       	rjmp	.+2      	; 0x2738 <xmit_spi_multi+0x6>
    2736:	f9 01       	movw	r30, r18
    2738:	80 81       	ld	r24, Z
    273a:	80 93 44 09 	sts	0x0944, r24	; 0x800944 <__TEXT_REGION_LENGTH__+0x7e0944>
    273e:	90 91 43 09 	lds	r25, 0x0943	; 0x800943 <__TEXT_REGION_LENGTH__+0x7e0943>
    2742:	99 23       	and	r25, r25
    2744:	e4 f7       	brge	.-8      	; 0x273e <xmit_spi_multi+0xc>
    2746:	9f 01       	movw	r18, r30
    2748:	2e 5f       	subi	r18, 0xFE	; 254
    274a:	3f 4f       	sbci	r19, 0xFF	; 255
    274c:	81 81       	ldd	r24, Z+1	; 0x01
    274e:	80 93 44 09 	sts	0x0944, r24	; 0x800944 <__TEXT_REGION_LENGTH__+0x7e0944>
    2752:	80 91 43 09 	lds	r24, 0x0943	; 0x800943 <__TEXT_REGION_LENGTH__+0x7e0943>
    2756:	88 23       	and	r24, r24
    2758:	e4 f7       	brge	.-8      	; 0x2752 <xmit_spi_multi+0x20>
    275a:	62 50       	subi	r22, 0x02	; 2
    275c:	71 09       	sbc	r23, r1
    275e:	59 f7       	brne	.-42     	; 0x2736 <xmit_spi_multi+0x4>
    2760:	08 95       	ret

00002762 <wait_ready>:
    2762:	9c 01       	movw	r18, r24
    2764:	ad ec       	ldi	r26, 0xCD	; 205
    2766:	bc ec       	ldi	r27, 0xCC	; 204
    2768:	0e 94 e3 17 	call	0x2fc6	; 0x2fc6 <__umulhisi3>
    276c:	96 95       	lsr	r25
    276e:	87 95       	ror	r24
    2770:	96 95       	lsr	r25
    2772:	87 95       	ror	r24
    2774:	96 95       	lsr	r25
    2776:	87 95       	ror	r24
    2778:	f8 94       	cli
    277a:	80 93 55 40 	sts	0x4055, r24	; 0x804055 <Timer2>
    277e:	90 93 56 40 	sts	0x4056, r25	; 0x804056 <Timer2+0x1>
    2782:	78 94       	sei
    2784:	8f ef       	ldi	r24, 0xFF	; 255
    2786:	0e 94 6f 13 	call	0x26de	; 0x26de <xchg_spi>
    278a:	f8 94       	cli
    278c:	20 91 55 40 	lds	r18, 0x4055	; 0x804055 <Timer2>
    2790:	30 91 56 40 	lds	r19, 0x4056	; 0x804056 <Timer2+0x1>
    2794:	78 94       	sei
    2796:	8f 3f       	cpi	r24, 0xFF	; 255
    2798:	11 f0       	breq	.+4      	; 0x279e <wait_ready+0x3c>
    279a:	23 2b       	or	r18, r19
    279c:	99 f7       	brne	.-26     	; 0x2784 <wait_ready+0x22>
    279e:	91 e0       	ldi	r25, 0x01	; 1
    27a0:	8f 3f       	cpi	r24, 0xFF	; 255
    27a2:	09 f0       	breq	.+2      	; 0x27a6 <wait_ready+0x44>
    27a4:	90 e0       	ldi	r25, 0x00	; 0
    27a6:	89 2f       	mov	r24, r25
    27a8:	90 e0       	ldi	r25, 0x00	; 0
    27aa:	08 95       	ret

000027ac <deselect>:
    27ac:	80 e2       	ldi	r24, 0x20	; 32
    27ae:	80 93 65 04 	sts	0x0465, r24	; 0x800465 <__TEXT_REGION_LENGTH__+0x7e0465>
    27b2:	8f ef       	ldi	r24, 0xFF	; 255
    27b4:	0e 94 6f 13 	call	0x26de	; 0x26de <xchg_spi>
    27b8:	08 95       	ret

000027ba <select>:
    27ba:	cf 93       	push	r28
    27bc:	df 93       	push	r29
    27be:	80 e2       	ldi	r24, 0x20	; 32
    27c0:	80 93 66 04 	sts	0x0466, r24	; 0x800466 <__TEXT_REGION_LENGTH__+0x7e0466>
    27c4:	8f ef       	ldi	r24, 0xFF	; 255
    27c6:	0e 94 6f 13 	call	0x26de	; 0x26de <xchg_spi>
    27ca:	84 ef       	ldi	r24, 0xF4	; 244
    27cc:	91 e0       	ldi	r25, 0x01	; 1
    27ce:	0e 94 b1 13 	call	0x2762	; 0x2762 <wait_ready>
    27d2:	ec 01       	movw	r28, r24
    27d4:	89 2b       	or	r24, r25
    27d6:	19 f4       	brne	.+6      	; 0x27de <select+0x24>
    27d8:	0e 94 d6 13 	call	0x27ac	; 0x27ac <deselect>
    27dc:	02 c0       	rjmp	.+4      	; 0x27e2 <select+0x28>
    27de:	c1 e0       	ldi	r28, 0x01	; 1
    27e0:	d0 e0       	ldi	r29, 0x00	; 0
    27e2:	ce 01       	movw	r24, r28
    27e4:	df 91       	pop	r29
    27e6:	cf 91       	pop	r28
    27e8:	08 95       	ret

000027ea <rcvr_datablock>:
    27ea:	0f 93       	push	r16
    27ec:	1f 93       	push	r17
    27ee:	cf 93       	push	r28
    27f0:	df 93       	push	r29
    27f2:	ec 01       	movw	r28, r24
    27f4:	8b 01       	movw	r16, r22
    27f6:	84 e1       	ldi	r24, 0x14	; 20
    27f8:	80 93 57 40 	sts	0x4057, r24	; 0x804057 <Timer1>
    27fc:	8f ef       	ldi	r24, 0xFF	; 255
    27fe:	0e 94 6f 13 	call	0x26de	; 0x26de <xchg_spi>
    2802:	8f 3f       	cpi	r24, 0xFF	; 255
    2804:	21 f4       	brne	.+8      	; 0x280e <rcvr_datablock+0x24>
    2806:	90 91 57 40 	lds	r25, 0x4057	; 0x804057 <Timer1>
    280a:	91 11       	cpse	r25, r1
    280c:	f7 cf       	rjmp	.-18     	; 0x27fc <rcvr_datablock+0x12>
    280e:	8e 3f       	cpi	r24, 0xFE	; 254
    2810:	69 f4       	brne	.+26     	; 0x282c <rcvr_datablock+0x42>
    2812:	b8 01       	movw	r22, r16
    2814:	ce 01       	movw	r24, r28
    2816:	0e 94 78 13 	call	0x26f0	; 0x26f0 <rcvr_spi_multi>
    281a:	8f ef       	ldi	r24, 0xFF	; 255
    281c:	0e 94 6f 13 	call	0x26de	; 0x26de <xchg_spi>
    2820:	8f ef       	ldi	r24, 0xFF	; 255
    2822:	0e 94 6f 13 	call	0x26de	; 0x26de <xchg_spi>
    2826:	81 e0       	ldi	r24, 0x01	; 1
    2828:	90 e0       	ldi	r25, 0x00	; 0
    282a:	02 c0       	rjmp	.+4      	; 0x2830 <rcvr_datablock+0x46>
    282c:	80 e0       	ldi	r24, 0x00	; 0
    282e:	90 e0       	ldi	r25, 0x00	; 0
    2830:	df 91       	pop	r29
    2832:	cf 91       	pop	r28
    2834:	1f 91       	pop	r17
    2836:	0f 91       	pop	r16
    2838:	08 95       	ret

0000283a <xmit_datablock>:
    283a:	0f 93       	push	r16
    283c:	1f 93       	push	r17
    283e:	cf 93       	push	r28
    2840:	8c 01       	movw	r16, r24
    2842:	c6 2f       	mov	r28, r22
    2844:	84 ef       	ldi	r24, 0xF4	; 244
    2846:	91 e0       	ldi	r25, 0x01	; 1
    2848:	0e 94 b1 13 	call	0x2762	; 0x2762 <wait_ready>
    284c:	00 97       	sbiw	r24, 0x00	; 0
    284e:	e9 f0       	breq	.+58     	; 0x288a <xmit_datablock+0x50>
    2850:	8c 2f       	mov	r24, r28
    2852:	0e 94 6f 13 	call	0x26de	; 0x26de <xchg_spi>
    2856:	cd 3f       	cpi	r28, 0xFD	; 253
    2858:	b1 f0       	breq	.+44     	; 0x2886 <xmit_datablock+0x4c>
    285a:	60 e0       	ldi	r22, 0x00	; 0
    285c:	72 e0       	ldi	r23, 0x02	; 2
    285e:	c8 01       	movw	r24, r16
    2860:	0e 94 99 13 	call	0x2732	; 0x2732 <xmit_spi_multi>
    2864:	8f ef       	ldi	r24, 0xFF	; 255
    2866:	0e 94 6f 13 	call	0x26de	; 0x26de <xchg_spi>
    286a:	8f ef       	ldi	r24, 0xFF	; 255
    286c:	0e 94 6f 13 	call	0x26de	; 0x26de <xchg_spi>
    2870:	8f ef       	ldi	r24, 0xFF	; 255
    2872:	0e 94 6f 13 	call	0x26de	; 0x26de <xchg_spi>
    2876:	8f 71       	andi	r24, 0x1F	; 31
    2878:	91 e0       	ldi	r25, 0x01	; 1
    287a:	85 30       	cpi	r24, 0x05	; 5
    287c:	09 f0       	breq	.+2      	; 0x2880 <xmit_datablock+0x46>
    287e:	90 e0       	ldi	r25, 0x00	; 0
    2880:	89 2f       	mov	r24, r25
    2882:	90 e0       	ldi	r25, 0x00	; 0
    2884:	02 c0       	rjmp	.+4      	; 0x288a <xmit_datablock+0x50>
    2886:	81 e0       	ldi	r24, 0x01	; 1
    2888:	90 e0       	ldi	r25, 0x00	; 0
    288a:	cf 91       	pop	r28
    288c:	1f 91       	pop	r17
    288e:	0f 91       	pop	r16
    2890:	08 95       	ret

00002892 <send_cmd>:
    2892:	ff 92       	push	r15
    2894:	0f 93       	push	r16
    2896:	1f 93       	push	r17
    2898:	cf 93       	push	r28
    289a:	df 93       	push	r29
    289c:	c8 2f       	mov	r28, r24
    289e:	d4 2f       	mov	r29, r20
    28a0:	15 2f       	mov	r17, r21
    28a2:	06 2f       	mov	r16, r22
    28a4:	f7 2e       	mov	r15, r23
    28a6:	88 23       	and	r24, r24
    28a8:	4c f4       	brge	.+18     	; 0x28bc <send_cmd+0x2a>
    28aa:	cf 77       	andi	r28, 0x7F	; 127
    28ac:	40 e0       	ldi	r20, 0x00	; 0
    28ae:	50 e0       	ldi	r21, 0x00	; 0
    28b0:	ba 01       	movw	r22, r20
    28b2:	87 e3       	ldi	r24, 0x37	; 55
    28b4:	0e 94 49 14 	call	0x2892	; 0x2892 <send_cmd>
    28b8:	82 30       	cpi	r24, 0x02	; 2
    28ba:	88 f5       	brcc	.+98     	; 0x291e <send_cmd+0x8c>
    28bc:	cc 30       	cpi	r28, 0x0C	; 12
    28be:	31 f0       	breq	.+12     	; 0x28cc <send_cmd+0x3a>
    28c0:	0e 94 d6 13 	call	0x27ac	; 0x27ac <deselect>
    28c4:	0e 94 dd 13 	call	0x27ba	; 0x27ba <select>
    28c8:	89 2b       	or	r24, r25
    28ca:	41 f1       	breq	.+80     	; 0x291c <send_cmd+0x8a>
    28cc:	8c 2f       	mov	r24, r28
    28ce:	80 64       	ori	r24, 0x40	; 64
    28d0:	0e 94 6f 13 	call	0x26de	; 0x26de <xchg_spi>
    28d4:	8f 2d       	mov	r24, r15
    28d6:	0e 94 6f 13 	call	0x26de	; 0x26de <xchg_spi>
    28da:	80 2f       	mov	r24, r16
    28dc:	0e 94 6f 13 	call	0x26de	; 0x26de <xchg_spi>
    28e0:	81 2f       	mov	r24, r17
    28e2:	0e 94 6f 13 	call	0x26de	; 0x26de <xchg_spi>
    28e6:	8d 2f       	mov	r24, r29
    28e8:	0e 94 6f 13 	call	0x26de	; 0x26de <xchg_spi>
    28ec:	cc 23       	and	r28, r28
    28ee:	11 f0       	breq	.+4      	; 0x28f4 <send_cmd+0x62>
    28f0:	81 e0       	ldi	r24, 0x01	; 1
    28f2:	01 c0       	rjmp	.+2      	; 0x28f6 <send_cmd+0x64>
    28f4:	85 e9       	ldi	r24, 0x95	; 149
    28f6:	c8 30       	cpi	r28, 0x08	; 8
    28f8:	09 f4       	brne	.+2      	; 0x28fc <send_cmd+0x6a>
    28fa:	87 e8       	ldi	r24, 0x87	; 135
    28fc:	0e 94 6f 13 	call	0x26de	; 0x26de <xchg_spi>
    2900:	cc 30       	cpi	r28, 0x0C	; 12
    2902:	19 f4       	brne	.+6      	; 0x290a <send_cmd+0x78>
    2904:	8f ef       	ldi	r24, 0xFF	; 255
    2906:	0e 94 6f 13 	call	0x26de	; 0x26de <xchg_spi>
    290a:	ca e0       	ldi	r28, 0x0A	; 10
    290c:	8f ef       	ldi	r24, 0xFF	; 255
    290e:	0e 94 6f 13 	call	0x26de	; 0x26de <xchg_spi>
    2912:	88 23       	and	r24, r24
    2914:	24 f4       	brge	.+8      	; 0x291e <send_cmd+0x8c>
    2916:	c1 50       	subi	r28, 0x01	; 1
    2918:	c9 f7       	brne	.-14     	; 0x290c <send_cmd+0x7a>
    291a:	01 c0       	rjmp	.+2      	; 0x291e <send_cmd+0x8c>
    291c:	8f ef       	ldi	r24, 0xFF	; 255
    291e:	df 91       	pop	r29
    2920:	cf 91       	pop	r28
    2922:	1f 91       	pop	r17
    2924:	0f 91       	pop	r16
    2926:	ff 90       	pop	r15
    2928:	08 95       	ret

0000292a <power_on>:
    292a:	83 ec       	ldi	r24, 0xC3	; 195
    292c:	99 e0       	ldi	r25, 0x09	; 9
    292e:	01 97       	sbiw	r24, 0x01	; 1
    2930:	f1 f7       	brne	.-4      	; 0x292e <power_on+0x4>
    2932:	00 c0       	rjmp	.+0      	; 0x2934 <power_on+0xa>
    2934:	00 00       	nop
    2936:	e0 e0       	ldi	r30, 0x00	; 0
    2938:	f4 e0       	ldi	r31, 0x04	; 4
    293a:	80 81       	ld	r24, Z
    293c:	80 65       	ori	r24, 0x50	; 80
    293e:	80 83       	st	Z, r24
    2940:	10 92 e4 05 	sts	0x05E4, r1	; 0x8005e4 <__TEXT_REGION_LENGTH__+0x7e05e4>
    2944:	e0 e6       	ldi	r30, 0x60	; 96
    2946:	f4 e0       	ldi	r31, 0x04	; 4
    2948:	80 81       	ld	r24, Z
    294a:	80 62       	ori	r24, 0x20	; 32
    294c:	80 83       	st	Z, r24
    294e:	80 e2       	ldi	r24, 0x20	; 32
    2950:	85 83       	std	Z+5, r24	; 0x05
    2952:	e0 e4       	ldi	r30, 0x40	; 64
    2954:	f9 e0       	ldi	r31, 0x09	; 9
    2956:	80 81       	ld	r24, Z
    2958:	80 62       	ori	r24, 0x20	; 32
    295a:	80 83       	st	Z, r24
    295c:	80 81       	ld	r24, Z
    295e:	86 60       	ori	r24, 0x06	; 6
    2960:	80 83       	st	Z, r24
    2962:	81 81       	ldd	r24, Z+1	; 0x01
    2964:	84 60       	ori	r24, 0x04	; 4
    2966:	81 83       	std	Z+1, r24	; 0x01
    2968:	12 82       	std	Z+2, r1	; 0x02
    296a:	13 82       	std	Z+3, r1	; 0x03
    296c:	80 81       	ld	r24, Z
    296e:	81 60       	ori	r24, 0x01	; 1
    2970:	80 83       	st	Z, r24
    2972:	08 95       	ret

00002974 <mmc_disk_initialize>:
    2974:	ef 92       	push	r14
    2976:	ff 92       	push	r15
    2978:	0f 93       	push	r16
    297a:	1f 93       	push	r17
    297c:	cf 93       	push	r28
    297e:	df 93       	push	r29
    2980:	00 d0       	rcall	.+0      	; 0x2982 <mmc_disk_initialize+0xe>
    2982:	00 d0       	rcall	.+0      	; 0x2984 <mmc_disk_initialize+0x10>
    2984:	cd b7       	in	r28, 0x3d	; 61
    2986:	de b7       	in	r29, 0x3e	; 62
    2988:	8a e0       	ldi	r24, 0x0A	; 10
    298a:	80 93 57 40 	sts	0x4057, r24	; 0x804057 <Timer1>
    298e:	80 91 57 40 	lds	r24, 0x4057	; 0x804057 <Timer1>
    2992:	81 11       	cpse	r24, r1
    2994:	fc cf       	rjmp	.-8      	; 0x298e <mmc_disk_initialize+0x1a>
    2996:	80 91 06 40 	lds	r24, 0x4006	; 0x804006 <Stat>
    299a:	81 ff       	sbrs	r24, 1
    299c:	03 c0       	rjmp	.+6      	; 0x29a4 <mmc_disk_initialize+0x30>
    299e:	80 91 06 40 	lds	r24, 0x4006	; 0x804006 <Stat>
    29a2:	b1 c0       	rjmp	.+354    	; 0x2b06 <mmc_disk_initialize+0x192>
    29a4:	0e 94 95 14 	call	0x292a	; 0x292a <power_on>
    29a8:	87 e2       	ldi	r24, 0x27	; 39
    29aa:	80 93 40 09 	sts	0x0940, r24	; 0x800940 <__TEXT_REGION_LENGTH__+0x7e0940>
    29ae:	1a e0       	ldi	r17, 0x0A	; 10
    29b0:	04 c0       	rjmp	.+8      	; 0x29ba <mmc_disk_initialize+0x46>
    29b2:	8f ef       	ldi	r24, 0xFF	; 255
    29b4:	0e 94 6f 13 	call	0x26de	; 0x26de <xchg_spi>
    29b8:	11 50       	subi	r17, 0x01	; 1
    29ba:	11 11       	cpse	r17, r1
    29bc:	fa cf       	rjmp	.-12     	; 0x29b2 <mmc_disk_initialize+0x3e>
    29be:	40 e0       	ldi	r20, 0x00	; 0
    29c0:	50 e0       	ldi	r21, 0x00	; 0
    29c2:	ba 01       	movw	r22, r20
    29c4:	80 e0       	ldi	r24, 0x00	; 0
    29c6:	0e 94 49 14 	call	0x2892	; 0x2892 <send_cmd>
    29ca:	81 30       	cpi	r24, 0x01	; 1
    29cc:	09 f0       	breq	.+2      	; 0x29d0 <mmc_disk_initialize+0x5c>
    29ce:	7e c0       	rjmp	.+252    	; 0x2acc <mmc_disk_initialize+0x158>
    29d0:	84 e6       	ldi	r24, 0x64	; 100
    29d2:	80 93 57 40 	sts	0x4057, r24	; 0x804057 <Timer1>
    29d6:	4a ea       	ldi	r20, 0xAA	; 170
    29d8:	51 e0       	ldi	r21, 0x01	; 1
    29da:	60 e0       	ldi	r22, 0x00	; 0
    29dc:	70 e0       	ldi	r23, 0x00	; 0
    29de:	88 e0       	ldi	r24, 0x08	; 8
    29e0:	0e 94 49 14 	call	0x2892	; 0x2892 <send_cmd>
    29e4:	81 30       	cpi	r24, 0x01	; 1
    29e6:	09 f0       	breq	.+2      	; 0x29ea <mmc_disk_initialize+0x76>
    29e8:	4a c0       	rjmp	.+148    	; 0x2a7e <mmc_disk_initialize+0x10a>
    29ea:	0e c0       	rjmp	.+28     	; 0x2a08 <mmc_disk_initialize+0x94>
    29ec:	e0 2e       	mov	r14, r16
    29ee:	f1 2c       	mov	r15, r1
    29f0:	8f ef       	ldi	r24, 0xFF	; 255
    29f2:	0e 94 6f 13 	call	0x26de	; 0x26de <xchg_spi>
    29f6:	e1 e0       	ldi	r30, 0x01	; 1
    29f8:	f0 e0       	ldi	r31, 0x00	; 0
    29fa:	ec 0f       	add	r30, r28
    29fc:	fd 1f       	adc	r31, r29
    29fe:	ee 0d       	add	r30, r14
    2a00:	ff 1d       	adc	r31, r15
    2a02:	80 83       	st	Z, r24
    2a04:	0f 5f       	subi	r16, 0xFF	; 255
    2a06:	01 c0       	rjmp	.+2      	; 0x2a0a <mmc_disk_initialize+0x96>
    2a08:	01 2f       	mov	r16, r17
    2a0a:	04 30       	cpi	r16, 0x04	; 4
    2a0c:	78 f3       	brcs	.-34     	; 0x29ec <mmc_disk_initialize+0x78>
    2a0e:	8b 81       	ldd	r24, Y+3	; 0x03
    2a10:	81 30       	cpi	r24, 0x01	; 1
    2a12:	09 f0       	breq	.+2      	; 0x2a16 <mmc_disk_initialize+0xa2>
    2a14:	5d c0       	rjmp	.+186    	; 0x2ad0 <mmc_disk_initialize+0x15c>
    2a16:	8c 81       	ldd	r24, Y+4	; 0x04
    2a18:	8a 3a       	cpi	r24, 0xAA	; 170
    2a1a:	09 f0       	breq	.+2      	; 0x2a1e <mmc_disk_initialize+0xaa>
    2a1c:	5b c0       	rjmp	.+182    	; 0x2ad4 <mmc_disk_initialize+0x160>
    2a1e:	80 91 57 40 	lds	r24, 0x4057	; 0x804057 <Timer1>
    2a22:	88 23       	and	r24, r24
    2a24:	49 f0       	breq	.+18     	; 0x2a38 <mmc_disk_initialize+0xc4>
    2a26:	40 e0       	ldi	r20, 0x00	; 0
    2a28:	50 e0       	ldi	r21, 0x00	; 0
    2a2a:	60 e0       	ldi	r22, 0x00	; 0
    2a2c:	70 e4       	ldi	r23, 0x40	; 64
    2a2e:	89 ea       	ldi	r24, 0xA9	; 169
    2a30:	0e 94 49 14 	call	0x2892	; 0x2892 <send_cmd>
    2a34:	81 11       	cpse	r24, r1
    2a36:	f3 cf       	rjmp	.-26     	; 0x2a1e <mmc_disk_initialize+0xaa>
    2a38:	80 91 57 40 	lds	r24, 0x4057	; 0x804057 <Timer1>
    2a3c:	88 23       	and	r24, r24
    2a3e:	09 f4       	brne	.+2      	; 0x2a42 <mmc_disk_initialize+0xce>
    2a40:	4b c0       	rjmp	.+150    	; 0x2ad8 <mmc_disk_initialize+0x164>
    2a42:	40 e0       	ldi	r20, 0x00	; 0
    2a44:	50 e0       	ldi	r21, 0x00	; 0
    2a46:	ba 01       	movw	r22, r20
    2a48:	8a e3       	ldi	r24, 0x3A	; 58
    2a4a:	0e 94 49 14 	call	0x2892	; 0x2892 <send_cmd>
    2a4e:	88 23       	and	r24, r24
    2a50:	79 f0       	breq	.+30     	; 0x2a70 <mmc_disk_initialize+0xfc>
    2a52:	10 e0       	ldi	r17, 0x00	; 0
    2a54:	48 c0       	rjmp	.+144    	; 0x2ae6 <mmc_disk_initialize+0x172>
    2a56:	e1 2e       	mov	r14, r17
    2a58:	f1 2c       	mov	r15, r1
    2a5a:	8f ef       	ldi	r24, 0xFF	; 255
    2a5c:	0e 94 6f 13 	call	0x26de	; 0x26de <xchg_spi>
    2a60:	e1 e0       	ldi	r30, 0x01	; 1
    2a62:	f0 e0       	ldi	r31, 0x00	; 0
    2a64:	ec 0f       	add	r30, r28
    2a66:	fd 1f       	adc	r31, r29
    2a68:	ee 0d       	add	r30, r14
    2a6a:	ff 1d       	adc	r31, r15
    2a6c:	80 83       	st	Z, r24
    2a6e:	1f 5f       	subi	r17, 0xFF	; 255
    2a70:	14 30       	cpi	r17, 0x04	; 4
    2a72:	88 f3       	brcs	.-30     	; 0x2a56 <mmc_disk_initialize+0xe2>
    2a74:	89 81       	ldd	r24, Y+1	; 0x01
    2a76:	86 ff       	sbrs	r24, 6
    2a78:	31 c0       	rjmp	.+98     	; 0x2adc <mmc_disk_initialize+0x168>
    2a7a:	18 e1       	ldi	r17, 0x18	; 24
    2a7c:	34 c0       	rjmp	.+104    	; 0x2ae6 <mmc_disk_initialize+0x172>
    2a7e:	40 e0       	ldi	r20, 0x00	; 0
    2a80:	50 e0       	ldi	r21, 0x00	; 0
    2a82:	ba 01       	movw	r22, r20
    2a84:	89 ea       	ldi	r24, 0xA9	; 169
    2a86:	0e 94 49 14 	call	0x2892	; 0x2892 <send_cmd>
    2a8a:	82 30       	cpi	r24, 0x02	; 2
    2a8c:	18 f4       	brcc	.+6      	; 0x2a94 <mmc_disk_initialize+0x120>
    2a8e:	14 e0       	ldi	r17, 0x04	; 4
    2a90:	09 ea       	ldi	r16, 0xA9	; 169
    2a92:	02 c0       	rjmp	.+4      	; 0x2a98 <mmc_disk_initialize+0x124>
    2a94:	11 e0       	ldi	r17, 0x01	; 1
    2a96:	01 e0       	ldi	r16, 0x01	; 1
    2a98:	80 91 57 40 	lds	r24, 0x4057	; 0x804057 <Timer1>
    2a9c:	88 23       	and	r24, r24
    2a9e:	41 f0       	breq	.+16     	; 0x2ab0 <mmc_disk_initialize+0x13c>
    2aa0:	40 e0       	ldi	r20, 0x00	; 0
    2aa2:	50 e0       	ldi	r21, 0x00	; 0
    2aa4:	ba 01       	movw	r22, r20
    2aa6:	80 2f       	mov	r24, r16
    2aa8:	0e 94 49 14 	call	0x2892	; 0x2892 <send_cmd>
    2aac:	81 11       	cpse	r24, r1
    2aae:	f4 cf       	rjmp	.-24     	; 0x2a98 <mmc_disk_initialize+0x124>
    2ab0:	80 91 57 40 	lds	r24, 0x4057	; 0x804057 <Timer1>
    2ab4:	88 23       	and	r24, r24
    2ab6:	a1 f0       	breq	.+40     	; 0x2ae0 <mmc_disk_initialize+0x16c>
    2ab8:	40 e0       	ldi	r20, 0x00	; 0
    2aba:	52 e0       	ldi	r21, 0x02	; 2
    2abc:	60 e0       	ldi	r22, 0x00	; 0
    2abe:	70 e0       	ldi	r23, 0x00	; 0
    2ac0:	80 e1       	ldi	r24, 0x10	; 16
    2ac2:	0e 94 49 14 	call	0x2892	; 0x2892 <send_cmd>
    2ac6:	81 11       	cpse	r24, r1
    2ac8:	0d c0       	rjmp	.+26     	; 0x2ae4 <mmc_disk_initialize+0x170>
    2aca:	0d c0       	rjmp	.+26     	; 0x2ae6 <mmc_disk_initialize+0x172>
    2acc:	10 e0       	ldi	r17, 0x00	; 0
    2ace:	0b c0       	rjmp	.+22     	; 0x2ae6 <mmc_disk_initialize+0x172>
    2ad0:	10 e0       	ldi	r17, 0x00	; 0
    2ad2:	09 c0       	rjmp	.+18     	; 0x2ae6 <mmc_disk_initialize+0x172>
    2ad4:	10 e0       	ldi	r17, 0x00	; 0
    2ad6:	07 c0       	rjmp	.+14     	; 0x2ae6 <mmc_disk_initialize+0x172>
    2ad8:	10 e0       	ldi	r17, 0x00	; 0
    2ada:	05 c0       	rjmp	.+10     	; 0x2ae6 <mmc_disk_initialize+0x172>
    2adc:	18 e0       	ldi	r17, 0x08	; 8
    2ade:	03 c0       	rjmp	.+6      	; 0x2ae6 <mmc_disk_initialize+0x172>
    2ae0:	10 e0       	ldi	r17, 0x00	; 0
    2ae2:	01 c0       	rjmp	.+2      	; 0x2ae6 <mmc_disk_initialize+0x172>
    2ae4:	10 e0       	ldi	r17, 0x00	; 0
    2ae6:	10 93 54 40 	sts	0x4054, r17	; 0x804054 <CardType>
    2aea:	0e 94 d6 13 	call	0x27ac	; 0x27ac <deselect>
    2aee:	11 23       	and	r17, r17
    2af0:	41 f0       	breq	.+16     	; 0x2b02 <mmc_disk_initialize+0x18e>
    2af2:	80 91 06 40 	lds	r24, 0x4006	; 0x804006 <Stat>
    2af6:	8e 7f       	andi	r24, 0xFE	; 254
    2af8:	80 93 06 40 	sts	0x4006, r24	; 0x804006 <Stat>
    2afc:	81 e3       	ldi	r24, 0x31	; 49
    2afe:	80 93 40 09 	sts	0x0940, r24	; 0x800940 <__TEXT_REGION_LENGTH__+0x7e0940>
    2b02:	80 91 06 40 	lds	r24, 0x4006	; 0x804006 <Stat>
    2b06:	24 96       	adiw	r28, 0x04	; 4
    2b08:	cd bf       	out	0x3d, r28	; 61
    2b0a:	de bf       	out	0x3e, r29	; 62
    2b0c:	df 91       	pop	r29
    2b0e:	cf 91       	pop	r28
    2b10:	1f 91       	pop	r17
    2b12:	0f 91       	pop	r16
    2b14:	ff 90       	pop	r15
    2b16:	ef 90       	pop	r14
    2b18:	08 95       	ret

00002b1a <mmc_disk_status>:
    2b1a:	80 91 06 40 	lds	r24, 0x4006	; 0x804006 <Stat>
    2b1e:	08 95       	ret

00002b20 <mmc_disk_read>:
    2b20:	ff 92       	push	r15
    2b22:	0f 93       	push	r16
    2b24:	1f 93       	push	r17
    2b26:	cf 93       	push	r28
    2b28:	df 93       	push	r29
    2b2a:	8c 01       	movw	r16, r24
    2b2c:	e9 01       	movw	r28, r18
    2b2e:	20 97       	sbiw	r28, 0x00	; 0
    2b30:	e1 f1       	breq	.+120    	; 0x2baa <mmc_disk_read+0x8a>
    2b32:	80 91 06 40 	lds	r24, 0x4006	; 0x804006 <Stat>
    2b36:	80 fd       	sbrc	r24, 0
    2b38:	3a c0       	rjmp	.+116    	; 0x2bae <mmc_disk_read+0x8e>
    2b3a:	80 91 54 40 	lds	r24, 0x4054	; 0x804054 <CardType>
    2b3e:	84 fd       	sbrc	r24, 4
    2b40:	09 c0       	rjmp	.+18     	; 0x2b54 <mmc_disk_read+0x34>
    2b42:	03 2e       	mov	r0, r19
    2b44:	39 e0       	ldi	r19, 0x09	; 9
    2b46:	44 0f       	add	r20, r20
    2b48:	55 1f       	adc	r21, r21
    2b4a:	66 1f       	adc	r22, r22
    2b4c:	77 1f       	adc	r23, r23
    2b4e:	3a 95       	dec	r19
    2b50:	d1 f7       	brne	.-12     	; 0x2b46 <mmc_disk_read+0x26>
    2b52:	30 2d       	mov	r19, r0
    2b54:	c2 30       	cpi	r28, 0x02	; 2
    2b56:	d1 05       	cpc	r29, r1
    2b58:	28 f0       	brcs	.+10     	; 0x2b64 <mmc_disk_read+0x44>
    2b5a:	0f 2e       	mov	r0, r31
    2b5c:	f2 e1       	ldi	r31, 0x12	; 18
    2b5e:	ff 2e       	mov	r15, r31
    2b60:	f0 2d       	mov	r31, r0
    2b62:	04 c0       	rjmp	.+8      	; 0x2b6c <mmc_disk_read+0x4c>
    2b64:	0f 2e       	mov	r0, r31
    2b66:	f1 e1       	ldi	r31, 0x11	; 17
    2b68:	ff 2e       	mov	r15, r31
    2b6a:	f0 2d       	mov	r31, r0
    2b6c:	8f 2d       	mov	r24, r15
    2b6e:	0e 94 49 14 	call	0x2892	; 0x2892 <send_cmd>
    2b72:	81 11       	cpse	r24, r1
    2b74:	13 c0       	rjmp	.+38     	; 0x2b9c <mmc_disk_read+0x7c>
    2b76:	60 e0       	ldi	r22, 0x00	; 0
    2b78:	72 e0       	ldi	r23, 0x02	; 2
    2b7a:	c8 01       	movw	r24, r16
    2b7c:	0e 94 f5 13 	call	0x27ea	; 0x27ea <rcvr_datablock>
    2b80:	89 2b       	or	r24, r25
    2b82:	19 f0       	breq	.+6      	; 0x2b8a <mmc_disk_read+0x6a>
    2b84:	1e 5f       	subi	r17, 0xFE	; 254
    2b86:	21 97       	sbiw	r28, 0x01	; 1
    2b88:	b1 f7       	brne	.-20     	; 0x2b76 <mmc_disk_read+0x56>
    2b8a:	82 e1       	ldi	r24, 0x12	; 18
    2b8c:	f8 12       	cpse	r15, r24
    2b8e:	06 c0       	rjmp	.+12     	; 0x2b9c <mmc_disk_read+0x7c>
    2b90:	40 e0       	ldi	r20, 0x00	; 0
    2b92:	50 e0       	ldi	r21, 0x00	; 0
    2b94:	ba 01       	movw	r22, r20
    2b96:	8c e0       	ldi	r24, 0x0C	; 12
    2b98:	0e 94 49 14 	call	0x2892	; 0x2892 <send_cmd>
    2b9c:	0e 94 d6 13 	call	0x27ac	; 0x27ac <deselect>
    2ba0:	81 e0       	ldi	r24, 0x01	; 1
    2ba2:	cd 2b       	or	r28, r29
    2ba4:	29 f4       	brne	.+10     	; 0x2bb0 <mmc_disk_read+0x90>
    2ba6:	80 e0       	ldi	r24, 0x00	; 0
    2ba8:	03 c0       	rjmp	.+6      	; 0x2bb0 <mmc_disk_read+0x90>
    2baa:	84 e0       	ldi	r24, 0x04	; 4
    2bac:	01 c0       	rjmp	.+2      	; 0x2bb0 <mmc_disk_read+0x90>
    2bae:	83 e0       	ldi	r24, 0x03	; 3
    2bb0:	df 91       	pop	r29
    2bb2:	cf 91       	pop	r28
    2bb4:	1f 91       	pop	r17
    2bb6:	0f 91       	pop	r16
    2bb8:	ff 90       	pop	r15
    2bba:	08 95       	ret

00002bbc <mmc_disk_write>:
    2bbc:	cf 92       	push	r12
    2bbe:	df 92       	push	r13
    2bc0:	ef 92       	push	r14
    2bc2:	ff 92       	push	r15
    2bc4:	0f 93       	push	r16
    2bc6:	1f 93       	push	r17
    2bc8:	cf 93       	push	r28
    2bca:	df 93       	push	r29
    2bcc:	8c 01       	movw	r16, r24
    2bce:	6a 01       	movw	r12, r20
    2bd0:	7b 01       	movw	r14, r22
    2bd2:	e9 01       	movw	r28, r18
    2bd4:	20 97       	sbiw	r28, 0x00	; 0
    2bd6:	09 f4       	brne	.+2      	; 0x2bda <mmc_disk_write+0x1e>
    2bd8:	52 c0       	rjmp	.+164    	; 0x2c7e <mmc_disk_write+0xc2>
    2bda:	80 91 06 40 	lds	r24, 0x4006	; 0x804006 <Stat>
    2bde:	80 fd       	sbrc	r24, 0
    2be0:	50 c0       	rjmp	.+160    	; 0x2c82 <mmc_disk_write+0xc6>
    2be2:	80 91 06 40 	lds	r24, 0x4006	; 0x804006 <Stat>
    2be6:	82 fd       	sbrc	r24, 2
    2be8:	4e c0       	rjmp	.+156    	; 0x2c86 <mmc_disk_write+0xca>
    2bea:	80 91 54 40 	lds	r24, 0x4054	; 0x804054 <CardType>
    2bee:	84 fd       	sbrc	r24, 4
    2bf0:	09 c0       	rjmp	.+18     	; 0x2c04 <mmc_disk_write+0x48>
    2bf2:	0b 2e       	mov	r0, r27
    2bf4:	b9 e0       	ldi	r27, 0x09	; 9
    2bf6:	cc 0c       	add	r12, r12
    2bf8:	dd 1c       	adc	r13, r13
    2bfa:	ee 1c       	adc	r14, r14
    2bfc:	ff 1c       	adc	r15, r15
    2bfe:	ba 95       	dec	r27
    2c00:	d1 f7       	brne	.-12     	; 0x2bf6 <mmc_disk_write+0x3a>
    2c02:	b0 2d       	mov	r27, r0
    2c04:	c1 30       	cpi	r28, 0x01	; 1
    2c06:	d1 05       	cpc	r29, r1
    2c08:	71 f4       	brne	.+28     	; 0x2c26 <mmc_disk_write+0x6a>
    2c0a:	b7 01       	movw	r22, r14
    2c0c:	a6 01       	movw	r20, r12
    2c0e:	88 e1       	ldi	r24, 0x18	; 24
    2c10:	0e 94 49 14 	call	0x2892	; 0x2892 <send_cmd>
    2c14:	81 11       	cpse	r24, r1
    2c16:	2c c0       	rjmp	.+88     	; 0x2c70 <mmc_disk_write+0xb4>
    2c18:	6e ef       	ldi	r22, 0xFE	; 254
    2c1a:	c8 01       	movw	r24, r16
    2c1c:	0e 94 1d 14 	call	0x283a	; 0x283a <xmit_datablock>
    2c20:	89 2b       	or	r24, r25
    2c22:	09 f5       	brne	.+66     	; 0x2c66 <mmc_disk_write+0xaa>
    2c24:	25 c0       	rjmp	.+74     	; 0x2c70 <mmc_disk_write+0xb4>
    2c26:	8c 70       	andi	r24, 0x0C	; 12
    2c28:	31 f0       	breq	.+12     	; 0x2c36 <mmc_disk_write+0x7a>
    2c2a:	ae 01       	movw	r20, r28
    2c2c:	60 e0       	ldi	r22, 0x00	; 0
    2c2e:	70 e0       	ldi	r23, 0x00	; 0
    2c30:	87 e9       	ldi	r24, 0x97	; 151
    2c32:	0e 94 49 14 	call	0x2892	; 0x2892 <send_cmd>
    2c36:	b7 01       	movw	r22, r14
    2c38:	a6 01       	movw	r20, r12
    2c3a:	89 e1       	ldi	r24, 0x19	; 25
    2c3c:	0e 94 49 14 	call	0x2892	; 0x2892 <send_cmd>
    2c40:	81 11       	cpse	r24, r1
    2c42:	16 c0       	rjmp	.+44     	; 0x2c70 <mmc_disk_write+0xb4>
    2c44:	6c ef       	ldi	r22, 0xFC	; 252
    2c46:	c8 01       	movw	r24, r16
    2c48:	0e 94 1d 14 	call	0x283a	; 0x283a <xmit_datablock>
    2c4c:	89 2b       	or	r24, r25
    2c4e:	19 f0       	breq	.+6      	; 0x2c56 <mmc_disk_write+0x9a>
    2c50:	1e 5f       	subi	r17, 0xFE	; 254
    2c52:	21 97       	sbiw	r28, 0x01	; 1
    2c54:	b9 f7       	brne	.-18     	; 0x2c44 <mmc_disk_write+0x88>
    2c56:	6d ef       	ldi	r22, 0xFD	; 253
    2c58:	80 e0       	ldi	r24, 0x00	; 0
    2c5a:	90 e0       	ldi	r25, 0x00	; 0
    2c5c:	0e 94 1d 14 	call	0x283a	; 0x283a <xmit_datablock>
    2c60:	89 2b       	or	r24, r25
    2c62:	21 f0       	breq	.+8      	; 0x2c6c <mmc_disk_write+0xb0>
    2c64:	05 c0       	rjmp	.+10     	; 0x2c70 <mmc_disk_write+0xb4>
    2c66:	c0 e0       	ldi	r28, 0x00	; 0
    2c68:	d0 e0       	ldi	r29, 0x00	; 0
    2c6a:	02 c0       	rjmp	.+4      	; 0x2c70 <mmc_disk_write+0xb4>
    2c6c:	c1 e0       	ldi	r28, 0x01	; 1
    2c6e:	d0 e0       	ldi	r29, 0x00	; 0
    2c70:	0e 94 d6 13 	call	0x27ac	; 0x27ac <deselect>
    2c74:	81 e0       	ldi	r24, 0x01	; 1
    2c76:	cd 2b       	or	r28, r29
    2c78:	39 f4       	brne	.+14     	; 0x2c88 <mmc_disk_write+0xcc>
    2c7a:	80 e0       	ldi	r24, 0x00	; 0
    2c7c:	05 c0       	rjmp	.+10     	; 0x2c88 <mmc_disk_write+0xcc>
    2c7e:	84 e0       	ldi	r24, 0x04	; 4
    2c80:	03 c0       	rjmp	.+6      	; 0x2c88 <mmc_disk_write+0xcc>
    2c82:	83 e0       	ldi	r24, 0x03	; 3
    2c84:	01 c0       	rjmp	.+2      	; 0x2c88 <mmc_disk_write+0xcc>
    2c86:	82 e0       	ldi	r24, 0x02	; 2
    2c88:	df 91       	pop	r29
    2c8a:	cf 91       	pop	r28
    2c8c:	1f 91       	pop	r17
    2c8e:	0f 91       	pop	r16
    2c90:	ff 90       	pop	r15
    2c92:	ef 90       	pop	r14
    2c94:	df 90       	pop	r13
    2c96:	cf 90       	pop	r12
    2c98:	08 95       	ret

00002c9a <mmc_disk_timerproc>:
{
	BYTE b;
	UINT n;


	b = Timer1;				/* 100Hz decrement timer */
    2c9a:	80 91 57 40 	lds	r24, 0x4057	; 0x804057 <Timer1>
	if (b) Timer1 = --b;
    2c9e:	88 23       	and	r24, r24
    2ca0:	19 f0       	breq	.+6      	; 0x2ca8 <mmc_disk_timerproc+0xe>
    2ca2:	81 50       	subi	r24, 0x01	; 1
    2ca4:	80 93 57 40 	sts	0x4057, r24	; 0x804057 <Timer1>
	n = Timer2;
    2ca8:	80 91 55 40 	lds	r24, 0x4055	; 0x804055 <Timer2>
    2cac:	90 91 56 40 	lds	r25, 0x4056	; 0x804056 <Timer2+0x1>
	if (n) Timer2 = --n;
    2cb0:	00 97       	sbiw	r24, 0x00	; 0
    2cb2:	29 f0       	breq	.+10     	; 0x2cbe <mmc_disk_timerproc+0x24>
    2cb4:	01 97       	sbiw	r24, 0x01	; 1
    2cb6:	80 93 55 40 	sts	0x4055, r24	; 0x804055 <Timer2>
    2cba:	90 93 56 40 	sts	0x4056, r25	; 0x804056 <Timer2+0x1>

	b = Stat;
    2cbe:	80 91 06 40 	lds	r24, 0x4006	; 0x804006 <Stat>
		b |= STA_PROTECT;
	} else {					/* Write enabled */
		b &= ~STA_PROTECT;
	}
	if (MMC_CD) {				/* Card inserted */
		b &= ~STA_NODISK;
    2cc2:	89 7f       	andi	r24, 0xF9	; 249
	} else {					/* Socket empty */
		b |= (STA_NODISK | STA_NOINIT);
	}
	Stat = b;				/* Update MMC status */
    2cc4:	80 93 06 40 	sts	0x4006, r24	; 0x804006 <Stat>
    2cc8:	08 95       	ret

00002cca <USART2_init>:

// USART2 is the port connected to the P1 port
void USART2_init(void)
{
	// AVR128DB48
	PORTF.DIRCLR = PIN5_bm;										/* set pin 5 of PORT B (RXd) as input*/
    2cca:	80 e2       	ldi	r24, 0x20	; 32
    2ccc:	80 93 a2 04 	sts	0x04A2, r24	; 0x8004a2 <__TEXT_REGION_LENGTH__+0x7e04a2>
	
	PORTMUX_USARTROUTEA |= 0x10;
    2cd0:	e2 ee       	ldi	r30, 0xE2	; 226
    2cd2:	f5 e0       	ldi	r31, 0x05	; 5
    2cd4:	80 81       	ld	r24, Z
    2cd6:	80 61       	ori	r24, 0x10	; 16
    2cd8:	80 83       	st	Z, r24

	if (dsmr == V2)
    2cda:	80 91 58 40 	lds	r24, 0x4058	; 0x804058 <dsmr>
    2cde:	90 91 59 40 	lds	r25, 0x4059	; 0x804059 <dsmr+0x1>
    2ce2:	89 2b       	or	r24, r25
    2ce4:	49 f4       	brne	.+18     	; 0x2cf8 <USART2_init+0x2e>
	{
		USART2.BAUD = (uint16_t)(USART2_BAUD_RATE(9600));		/* set the baud rate*/
    2ce6:	e0 e4       	ldi	r30, 0x40	; 64
    2ce8:	f8 e0       	ldi	r31, 0x08	; 8
    2cea:	8b e0       	ldi	r24, 0x0B	; 11
    2cec:	9a e1       	ldi	r25, 0x1A	; 26
    2cee:	80 87       	std	Z+8, r24	; 0x08
    2cf0:	91 87       	std	Z+9, r25	; 0x09
		USART2.CTRLC = USART_PMODE1_bm | USART_CHSIZE1_bm;		/* set the data format to 7-bit, even parity*/
    2cf2:	82 e2       	ldi	r24, 0x22	; 34
    2cf4:	87 83       	std	Z+7, r24	; 0x07
    2cf6:	08 c0       	rjmp	.+16     	; 0x2d08 <USART2_init+0x3e>
	}
	else
	{
		USART2.BAUD = (uint16_t)(USART2_BAUD_RATE(115200));		/* set the baud rate*/
    2cf8:	e0 e4       	ldi	r30, 0x40	; 64
    2cfa:	f8 e0       	ldi	r31, 0x08	; 8
    2cfc:	8c e2       	ldi	r24, 0x2C	; 44
    2cfe:	92 e0       	ldi	r25, 0x02	; 2
    2d00:	80 87       	std	Z+8, r24	; 0x08
    2d02:	91 87       	std	Z+9, r25	; 0x09
		USART2.CTRLC = USART_CHSIZE1_bm | USART_CHSIZE0_bm;		/* set the data format to 8-bit, no parity*/
    2d04:	83 e0       	ldi	r24, 0x03	; 3
    2d06:	87 83       	std	Z+7, r24	; 0x07
	}
	
	USART2.CTRLB |= USART_RXEN_bm;								/* enable receiver*/
    2d08:	e0 e4       	ldi	r30, 0x40	; 64
    2d0a:	f8 e0       	ldi	r31, 0x08	; 8
    2d0c:	86 81       	ldd	r24, Z+6	; 0x06
    2d0e:	80 68       	ori	r24, 0x80	; 128
    2d10:	86 83       	std	Z+6, r24	; 0x06
    2d12:	08 95       	ret

00002d14 <USART2_Read>:
}

uint8_t USART2_Read()
{
	while (!(USART2.STATUS & USART_RXCIF_bm));
    2d14:	80 91 44 08 	lds	r24, 0x0844	; 0x800844 <__TEXT_REGION_LENGTH__+0x7e0844>
    2d18:	88 23       	and	r24, r24
    2d1a:	e4 f7       	brge	.-8      	; 0x2d14 <USART2_Read>
	
	return USART2.RXDATAL;
    2d1c:	80 91 40 08 	lds	r24, 0x0840	; 0x800840 <__TEXT_REGION_LENGTH__+0x7e0840>
}
    2d20:	08 95       	ret

00002d22 <CLOCK_XOSCHF_crystal_init>:

void CLOCK_XOSCHF_crystal_init(void)
{
	/* Enable crystal oscillator with frequency range 16 MHz and 4K cycles start-up time */
	ccp_write_io((uint8_t *) &CLKCTRL.XOSCHFCTRLA, CLKCTRL_RUNSTDBY_bm
    2d22:	65 ea       	ldi	r22, 0xA5	; 165
    2d24:	80 e8       	ldi	r24, 0x80	; 128
    2d26:	90 e0       	ldi	r25, 0x00	; 0
    2d28:	0e 94 8b 1f 	call	0x3f16	; 0x3f16 <ccp_write_io>
				 | CLKCTRL_FRQRANGE_16M_gc
				 | CLKCTRL_SELHF_XTAL_gc
				 | CLKCTRL_ENABLE_bm);

	/* Confirm crystal oscillator start-up */
	while(!(CLKCTRL.MCLKSTATUS & CLKCTRL_EXTS_bm));
    2d2c:	80 91 65 00 	lds	r24, 0x0065	; 0x800065 <__TEXT_REGION_LENGTH__+0x7e0065>
    2d30:	84 ff       	sbrs	r24, 4
    2d32:	fc cf       	rjmp	.-8      	; 0x2d2c <CLOCK_XOSCHF_crystal_init+0xa>

	/* Clear Main Clock Prescaler */
	ccp_write_io((uint8_t *) &CLKCTRL.MCLKCTRLB, 0x00);
    2d34:	60 e0       	ldi	r22, 0x00	; 0
    2d36:	81 e6       	ldi	r24, 0x61	; 97
    2d38:	90 e0       	ldi	r25, 0x00	; 0
    2d3a:	0e 94 8b 1f 	call	0x3f16	; 0x3f16 <ccp_write_io>

	/* Set the main clock to use XOSCHF as source, and enable the CLKOUT pin */
	ccp_write_io((uint8_t *) &CLKCTRL.MCLKCTRLA, CLKCTRL_CLKSEL_EXTCLK_gc | CLKCTRL_CLKOUT_bm);
    2d3e:	63 e8       	ldi	r22, 0x83	; 131
    2d40:	80 e6       	ldi	r24, 0x60	; 96
    2d42:	90 e0       	ldi	r25, 0x00	; 0
    2d44:	0e 94 8b 1f 	call	0x3f16	; 0x3f16 <ccp_write_io>

	/* Wait for system oscillator changing to complete */
	while(CLKCTRL.MCLKSTATUS & CLKCTRL_SOSC_bm);
    2d48:	80 91 65 00 	lds	r24, 0x0065	; 0x800065 <__TEXT_REGION_LENGTH__+0x7e0065>
    2d4c:	80 fd       	sbrc	r24, 0
    2d4e:	fc cf       	rjmp	.-8      	; 0x2d48 <CLOCK_XOSCHF_crystal_init+0x26>

	/* Clear RUNSTDBY for power save during sleep */
	ccp_write_io((uint8_t *) &CLKCTRL.XOSCHFCTRLA, CLKCTRL.XOSCHFCTRLA & ~CLKCTRL_RUNSTDBY_bm);
    2d50:	60 91 80 00 	lds	r22, 0x0080	; 0x800080 <__TEXT_REGION_LENGTH__+0x7e0080>
    2d54:	6f 77       	andi	r22, 0x7F	; 127
    2d56:	80 e8       	ldi	r24, 0x80	; 128
    2d58:	90 e0       	ldi	r25, 0x00	; 0
    2d5a:	0e 94 8b 1f 	call	0x3f16	; 0x3f16 <ccp_write_io>
    2d5e:	08 95       	ret

00002d60 <__vector_9>:

	/* Change complete and the main clock is 16 MHz */
}

ISR(TCA0_OVF_vect)
{
    2d60:	1f 92       	push	r1
    2d62:	0f 92       	push	r0
    2d64:	0f b6       	in	r0, 0x3f	; 63
    2d66:	0f 92       	push	r0
    2d68:	11 24       	eor	r1, r1
    2d6a:	0b b6       	in	r0, 0x3b	; 59
    2d6c:	0f 92       	push	r0
    2d6e:	2f 93       	push	r18
    2d70:	3f 93       	push	r19
    2d72:	4f 93       	push	r20
    2d74:	5f 93       	push	r21
    2d76:	6f 93       	push	r22
    2d78:	7f 93       	push	r23
    2d7a:	8f 93       	push	r24
    2d7c:	9f 93       	push	r25
    2d7e:	af 93       	push	r26
    2d80:	bf 93       	push	r27
    2d82:	ef 93       	push	r30
    2d84:	ff 93       	push	r31
	disk_timerproc();	/* Drive timer procedure of low level disk I/O module */
    2d86:	0e 94 c5 00 	call	0x18a	; 0x18a <disk_timerproc>

	TCA0.SINGLE.INTFLAGS = TCA_SINGLE_OVF_bm;
    2d8a:	81 e0       	ldi	r24, 0x01	; 1
    2d8c:	80 93 0b 0a 	sts	0x0A0B, r24	; 0x800a0b <__TEXT_REGION_LENGTH__+0x7e0a0b>
}
    2d90:	ff 91       	pop	r31
    2d92:	ef 91       	pop	r30
    2d94:	bf 91       	pop	r27
    2d96:	af 91       	pop	r26
    2d98:	9f 91       	pop	r25
    2d9a:	8f 91       	pop	r24
    2d9c:	7f 91       	pop	r23
    2d9e:	6f 91       	pop	r22
    2da0:	5f 91       	pop	r21
    2da2:	4f 91       	pop	r20
    2da4:	3f 91       	pop	r19
    2da6:	2f 91       	pop	r18
    2da8:	0f 90       	pop	r0
    2daa:	0b be       	out	0x3b, r0	; 59
    2dac:	0f 90       	pop	r0
    2dae:	0f be       	out	0x3f, r0	; 63
    2db0:	0f 90       	pop	r0
    2db2:	1f 90       	pop	r1
    2db4:	18 95       	reti

00002db6 <main>:

int main(void)
{
    2db6:	cf 93       	push	r28
    2db8:	df 93       	push	r29
    2dba:	cd b7       	in	r28, 0x3d	; 61
    2dbc:	de b7       	in	r29, 0x3e	; 62
    2dbe:	c9 59       	subi	r28, 0x99	; 153
    2dc0:	d2 40       	sbci	r29, 0x02	; 2
    2dc2:	cd bf       	out	0x3d, r28	; 61
    2dc4:	de bf       	out	0x3e, r29	; 62
	uint8_t index = 0;
	char c;
	uint16_t counter = 0;
	char buffer[20];
	
	CLOCK_XOSCHF_crystal_init();
    2dc6:	0e 94 91 16 	call	0x2d22	; 0x2d22 <CLOCK_XOSCHF_crystal_init>

	//
	// SD CARD INIT
	//
	TCA0.SINGLE.INTCTRL = TCA_SINGLE_OVF_bm;
    2dca:	e0 e0       	ldi	r30, 0x00	; 0
    2dcc:	fa e0       	ldi	r31, 0x0A	; 10
    2dce:	81 e0       	ldi	r24, 0x01	; 1
    2dd0:	82 87       	std	Z+10, r24	; 0x0a
	TCA0.SINGLE.PER = 625; // tick every 10 msec = 100 hz: clock = 16000000 / 256 = 62500 hz
    2dd2:	81 e7       	ldi	r24, 0x71	; 113
    2dd4:	92 e0       	ldi	r25, 0x02	; 2
    2dd6:	86 a3       	std	Z+38, r24	; 0x26
    2dd8:	97 a3       	std	Z+39, r25	; 0x27
	TCA0.SINGLE.CTRLA = (TCA_SINGLE_CLKSEL1_bm | TCA_SINGLE_CLKSEL2_bm);
    2dda:	8c e0       	ldi	r24, 0x0C	; 12
    2ddc:	80 83       	st	Z, r24
	TCA0.SINGLE.CTRLA |= TCA_SINGLE_ENABLE_bm;
    2dde:	80 81       	ld	r24, Z
    2de0:	81 60       	ori	r24, 0x01	; 1
    2de2:	80 83       	st	Z, r24

	sei();
    2de4:	78 94       	sei

	FATFS FatFs;
	UINT bw;
	f_mount(&FatFs, "", 1);		// Give a work area to the FatFs module
    2de6:	41 e0       	ldi	r20, 0x01	; 1
    2de8:	6f e4       	ldi	r22, 0x4F	; 79
    2dea:	70 e4       	ldi	r23, 0x40	; 64
    2dec:	ce 01       	movw	r24, r28
    2dee:	8b 59       	subi	r24, 0x9B	; 155
    2df0:	9f 4f       	sbci	r25, 0xFF	; 255
    2df2:	0e 94 c5 0e 	call	0x1d8a	; 0x1d8a <f_mount>
	FIL *fp = (FIL *)malloc(sizeof (FIL));
    2df6:	82 e2       	ldi	r24, 0x22	; 34
    2df8:	92 e0       	ldi	r25, 0x02	; 2
    2dfa:	0e 94 fd 17 	call	0x2ffa	; 0x2ffa <malloc>
    2dfe:	6c 01       	movw	r12, r24

	USART2_init();
    2e00:	0e 94 65 16 	call	0x2cca	; 0x2cca <USART2_init>
int main(void)
{
	char command[MAX_COMMAND_LEN];
	uint8_t index = 0;
	char c;
	uint16_t counter = 0;
    2e04:	e1 2c       	mov	r14, r1
    2e06:	f1 2c       	mov	r15, r1
    2e08:	10 e0       	ldi	r17, 0x00	; 0

    /* Replace with your application code */
    while (1) 
    {
		// echo received P1 data on USB port
		c = USART2_Read();
    2e0a:	0e 94 8a 16 	call	0x2d14	; 0x2d14 <USART2_Read>
		
		if(c != '\n' && c != '\r')
    2e0e:	8a 30       	cpi	r24, 0x0A	; 10
    2e10:	81 f0       	breq	.+32     	; 0x2e32 <main+0x7c>
    2e12:	8d 30       	cpi	r24, 0x0D	; 13
    2e14:	71 f0       	breq	.+28     	; 0x2e32 <main+0x7c>
		{
			command[index++] = c;
    2e16:	91 e0       	ldi	r25, 0x01	; 1
    2e18:	91 0f       	add	r25, r17
    2e1a:	e1 e0       	ldi	r30, 0x01	; 1
    2e1c:	f0 e0       	ldi	r31, 0x00	; 0
    2e1e:	ec 0f       	add	r30, r28
    2e20:	fd 1f       	adc	r31, r29
    2e22:	e1 0f       	add	r30, r17
    2e24:	f1 1d       	adc	r31, r1
    2e26:	80 83       	st	Z, r24
			if(index > MAX_COMMAND_LEN)
    2e28:	91 35       	cpi	r25, 0x51	; 81
    2e2a:	10 f4       	brcc	.+4      	; 0x2e30 <main+0x7a>
		// echo received P1 data on USB port
		c = USART2_Read();
		
		if(c != '\n' && c != '\r')
		{
			command[index++] = c;
    2e2c:	19 2f       	mov	r17, r25
    2e2e:	01 c0       	rjmp	.+2      	; 0x2e32 <main+0x7c>
			if(index > MAX_COMMAND_LEN)
			{
				index = 0;
    2e30:	10 e0       	ldi	r17, 0x00	; 0
		    }
		}
		        
		if(c == '\n')
    2e32:	8a 30       	cpi	r24, 0x0A	; 10
    2e34:	51 f7       	brne	.-44     	; 0x2e0a <main+0x54>
		{
			int kw, deckw;
			        
			command[index] = '\0';
    2e36:	ce 01       	movw	r24, r28
    2e38:	01 96       	adiw	r24, 0x01	; 1
    2e3a:	fc 01       	movw	r30, r24
    2e3c:	e1 0f       	add	r30, r17
    2e3e:	f1 1d       	adc	r31, r1
    2e40:	10 82       	st	Z, r1
			index = 0;
			        
			if (sscanf(command, "1-0:1.7.0(%d.%d*kW)", &kw, &deckw) == 2)
    2e42:	9e 01       	movw	r18, r28
    2e44:	2a 56       	subi	r18, 0x6A	; 106
    2e46:	3d 4f       	sbci	r19, 0xFD	; 253
    2e48:	3f 93       	push	r19
    2e4a:	2f 93       	push	r18
    2e4c:	2e 5f       	subi	r18, 0xFE	; 254
    2e4e:	3f 4f       	sbci	r19, 0xFF	; 255
    2e50:	3f 93       	push	r19
    2e52:	2f 93       	push	r18
    2e54:	2f e1       	ldi	r18, 0x1F	; 31
    2e56:	30 e4       	ldi	r19, 0x40	; 64
    2e58:	3f 93       	push	r19
    2e5a:	2f 93       	push	r18
    2e5c:	9f 93       	push	r25
    2e5e:	8f 93       	push	r24
    2e60:	0e 94 6f 19 	call	0x32de	; 0x32de <sscanf>
    2e64:	cd bf       	out	0x3d, r28	; 61
    2e66:	de bf       	out	0x3e, r29	; 62
    2e68:	02 97       	sbiw	r24, 0x02	; 2
    2e6a:	71 f6       	brne	.-100    	; 0x2e08 <main+0x52>
			{
				if (dsmr == V2)
    2e6c:	80 91 58 40 	lds	r24, 0x4058	; 0x804058 <dsmr>
    2e70:	90 91 59 40 	lds	r25, 0x4059	; 0x804059 <dsmr+0x1>
    2e74:	89 2b       	or	r24, r25
    2e76:	b9 f4       	brne	.+46     	; 0x2ea6 <main+0xf0>
				{
					// v2 is sending 2 digits after the '.', so 10 W accuracy
					deckw *= 10;
    2e78:	ca 56       	subi	r28, 0x6A	; 106
    2e7a:	dd 4f       	sbci	r29, 0xFD	; 253
    2e7c:	88 81       	ld	r24, Y
    2e7e:	99 81       	ldd	r25, Y+1	; 0x01
    2e80:	c6 59       	subi	r28, 0x96	; 150
    2e82:	d2 40       	sbci	r29, 0x02	; 2
    2e84:	9c 01       	movw	r18, r24
    2e86:	22 0f       	add	r18, r18
    2e88:	33 1f       	adc	r19, r19
    2e8a:	88 0f       	add	r24, r24
    2e8c:	99 1f       	adc	r25, r25
    2e8e:	88 0f       	add	r24, r24
    2e90:	99 1f       	adc	r25, r25
    2e92:	88 0f       	add	r24, r24
    2e94:	99 1f       	adc	r25, r25
    2e96:	82 0f       	add	r24, r18
    2e98:	93 1f       	adc	r25, r19
    2e9a:	ca 56       	subi	r28, 0x6A	; 106
    2e9c:	dd 4f       	sbci	r29, 0xFD	; 253
    2e9e:	88 83       	st	Y, r24
    2ea0:	99 83       	std	Y+1, r25	; 0x01
    2ea2:	c6 59       	subi	r28, 0x96	; 150
    2ea4:	d2 40       	sbci	r29, 0x02	; 2
				}
				        
				sprintf(buffer, "%5d: %5d W", counter, kw * 1000 + deckw);
    2ea6:	c8 56       	subi	r28, 0x68	; 104
    2ea8:	dd 4f       	sbci	r29, 0xFD	; 253
    2eaa:	48 81       	ld	r20, Y
    2eac:	59 81       	ldd	r21, Y+1	; 0x01
    2eae:	c8 59       	subi	r28, 0x98	; 152
    2eb0:	d2 40       	sbci	r29, 0x02	; 2
    2eb2:	88 ee       	ldi	r24, 0xE8	; 232
    2eb4:	93 e0       	ldi	r25, 0x03	; 3
    2eb6:	48 9f       	mul	r20, r24
    2eb8:	90 01       	movw	r18, r0
    2eba:	49 9f       	mul	r20, r25
    2ebc:	30 0d       	add	r19, r0
    2ebe:	58 9f       	mul	r21, r24
    2ec0:	30 0d       	add	r19, r0
    2ec2:	11 24       	eor	r1, r1
    2ec4:	ca 56       	subi	r28, 0x6A	; 106
    2ec6:	dd 4f       	sbci	r29, 0xFD	; 253
    2ec8:	88 81       	ld	r24, Y
    2eca:	99 81       	ldd	r25, Y+1	; 0x01
    2ecc:	c6 59       	subi	r28, 0x96	; 150
    2ece:	d2 40       	sbci	r29, 0x02	; 2
    2ed0:	82 0f       	add	r24, r18
    2ed2:	93 1f       	adc	r25, r19
    2ed4:	9f 93       	push	r25
    2ed6:	8f 93       	push	r24
    2ed8:	ff 92       	push	r15
    2eda:	ef 92       	push	r14
    2edc:	83 e3       	ldi	r24, 0x33	; 51
    2ede:	90 e4       	ldi	r25, 0x40	; 64
    2ee0:	9f 93       	push	r25
    2ee2:	8f 93       	push	r24
    2ee4:	ce 01       	movw	r24, r28
    2ee6:	8f 5a       	subi	r24, 0xAF	; 175
    2ee8:	9f 4f       	sbci	r25, 0xFF	; 255
    2eea:	9f 93       	push	r25
    2eec:	8f 93       	push	r24
    2eee:	0e 94 46 19 	call	0x328c	; 0x328c <sprintf>
				
				// Open file and write data to SD card
 				if (f_open(fp, "log.txt", FA_WRITE | FA_OPEN_APPEND) == FR_OK) 
    2ef2:	42 e3       	ldi	r20, 0x32	; 50
    2ef4:	6e e3       	ldi	r22, 0x3E	; 62
    2ef6:	70 e4       	ldi	r23, 0x40	; 64
    2ef8:	c6 01       	movw	r24, r12
    2efa:	0e 94 08 0f 	call	0x1e10	; 0x1e10 <f_open>
    2efe:	cd bf       	out	0x3d, r28	; 61
    2f00:	de bf       	out	0x3e, r29	; 62
    2f02:	81 11       	cpse	r24, r1
    2f04:	3a c0       	rjmp	.+116    	; 0x2f7a <main+0x1c4>
				 {	
	 				sprintf(buffer, "%5d;%5d\r\n", counter, kw * 1000 + deckw);
    2f06:	c8 56       	subi	r28, 0x68	; 104
    2f08:	dd 4f       	sbci	r29, 0xFD	; 253
    2f0a:	48 81       	ld	r20, Y
    2f0c:	59 81       	ldd	r21, Y+1	; 0x01
    2f0e:	c8 59       	subi	r28, 0x98	; 152
    2f10:	d2 40       	sbci	r29, 0x02	; 2
    2f12:	88 ee       	ldi	r24, 0xE8	; 232
    2f14:	93 e0       	ldi	r25, 0x03	; 3
    2f16:	48 9f       	mul	r20, r24
    2f18:	90 01       	movw	r18, r0
    2f1a:	49 9f       	mul	r20, r25
    2f1c:	30 0d       	add	r19, r0
    2f1e:	58 9f       	mul	r21, r24
    2f20:	30 0d       	add	r19, r0
    2f22:	11 24       	eor	r1, r1
    2f24:	ca 56       	subi	r28, 0x6A	; 106
    2f26:	dd 4f       	sbci	r29, 0xFD	; 253
    2f28:	88 81       	ld	r24, Y
    2f2a:	99 81       	ldd	r25, Y+1	; 0x01
    2f2c:	c6 59       	subi	r28, 0x96	; 150
    2f2e:	d2 40       	sbci	r29, 0x02	; 2
    2f30:	82 0f       	add	r24, r18
    2f32:	93 1f       	adc	r25, r19
    2f34:	9f 93       	push	r25
    2f36:	8f 93       	push	r24
    2f38:	ff 92       	push	r15
    2f3a:	ef 92       	push	r14
    2f3c:	86 e4       	ldi	r24, 0x46	; 70
    2f3e:	90 e4       	ldi	r25, 0x40	; 64
    2f40:	9f 93       	push	r25
    2f42:	8f 93       	push	r24
    2f44:	8e 01       	movw	r16, r28
    2f46:	0f 5a       	subi	r16, 0xAF	; 175
    2f48:	1f 4f       	sbci	r17, 0xFF	; 255
    2f4a:	1f 93       	push	r17
    2f4c:	0f 93       	push	r16
    2f4e:	0e 94 46 19 	call	0x328c	; 0x328c <sprintf>
	 				f_write(fp, buffer, strlen(buffer), &bw);		// Write data to the file
    2f52:	f8 01       	movw	r30, r16
    2f54:	01 90       	ld	r0, Z+
    2f56:	00 20       	and	r0, r0
    2f58:	e9 f7       	brne	.-6      	; 0x2f54 <main+0x19e>
    2f5a:	31 97       	sbiw	r30, 0x01	; 1
    2f5c:	af 01       	movw	r20, r30
    2f5e:	40 1b       	sub	r20, r16
    2f60:	51 0b       	sbc	r21, r17
    2f62:	9e 01       	movw	r18, r28
    2f64:	2c 56       	subi	r18, 0x6C	; 108
    2f66:	3d 4f       	sbci	r19, 0xFD	; 253
    2f68:	b8 01       	movw	r22, r16
    2f6a:	c6 01       	movw	r24, r12
    2f6c:	0e 94 e4 10 	call	0x21c8	; 0x21c8 <f_write>
	 				f_close(fp);									// Close the file
    2f70:	c6 01       	movw	r24, r12
    2f72:	0e 94 51 13 	call	0x26a2	; 0x26a2 <f_close>
    2f76:	cd bf       	out	0x3d, r28	; 61
    2f78:	de bf       	out	0x3e, r29	; 62
 				}

				counter++;
    2f7a:	9f ef       	ldi	r25, 0xFF	; 255
    2f7c:	e9 1a       	sub	r14, r25
    2f7e:	f9 0a       	sbc	r15, r25
    2f80:	43 cf       	rjmp	.-378    	; 0x2e08 <main+0x52>

00002f82 <__udivmodsi4>:
    2f82:	a1 e2       	ldi	r26, 0x21	; 33
    2f84:	1a 2e       	mov	r1, r26
    2f86:	aa 1b       	sub	r26, r26
    2f88:	bb 1b       	sub	r27, r27
    2f8a:	fd 01       	movw	r30, r26
    2f8c:	0d c0       	rjmp	.+26     	; 0x2fa8 <__udivmodsi4_ep>

00002f8e <__udivmodsi4_loop>:
    2f8e:	aa 1f       	adc	r26, r26
    2f90:	bb 1f       	adc	r27, r27
    2f92:	ee 1f       	adc	r30, r30
    2f94:	ff 1f       	adc	r31, r31
    2f96:	a2 17       	cp	r26, r18
    2f98:	b3 07       	cpc	r27, r19
    2f9a:	e4 07       	cpc	r30, r20
    2f9c:	f5 07       	cpc	r31, r21
    2f9e:	20 f0       	brcs	.+8      	; 0x2fa8 <__udivmodsi4_ep>
    2fa0:	a2 1b       	sub	r26, r18
    2fa2:	b3 0b       	sbc	r27, r19
    2fa4:	e4 0b       	sbc	r30, r20
    2fa6:	f5 0b       	sbc	r31, r21

00002fa8 <__udivmodsi4_ep>:
    2fa8:	66 1f       	adc	r22, r22
    2faa:	77 1f       	adc	r23, r23
    2fac:	88 1f       	adc	r24, r24
    2fae:	99 1f       	adc	r25, r25
    2fb0:	1a 94       	dec	r1
    2fb2:	69 f7       	brne	.-38     	; 0x2f8e <__udivmodsi4_loop>
    2fb4:	60 95       	com	r22
    2fb6:	70 95       	com	r23
    2fb8:	80 95       	com	r24
    2fba:	90 95       	com	r25
    2fbc:	9b 01       	movw	r18, r22
    2fbe:	ac 01       	movw	r20, r24
    2fc0:	bd 01       	movw	r22, r26
    2fc2:	cf 01       	movw	r24, r30
    2fc4:	08 95       	ret

00002fc6 <__umulhisi3>:
    2fc6:	a2 9f       	mul	r26, r18
    2fc8:	b0 01       	movw	r22, r0
    2fca:	b3 9f       	mul	r27, r19
    2fcc:	c0 01       	movw	r24, r0
    2fce:	a3 9f       	mul	r26, r19
    2fd0:	70 0d       	add	r23, r0
    2fd2:	81 1d       	adc	r24, r1
    2fd4:	11 24       	eor	r1, r1
    2fd6:	91 1d       	adc	r25, r1
    2fd8:	b2 9f       	mul	r27, r18
    2fda:	70 0d       	add	r23, r0
    2fdc:	81 1d       	adc	r24, r1
    2fde:	11 24       	eor	r1, r1
    2fe0:	91 1d       	adc	r25, r1
    2fe2:	08 95       	ret

00002fe4 <__muluhisi3>:
    2fe4:	0e 94 e3 17 	call	0x2fc6	; 0x2fc6 <__umulhisi3>
    2fe8:	a5 9f       	mul	r26, r21
    2fea:	90 0d       	add	r25, r0
    2fec:	b4 9f       	mul	r27, r20
    2fee:	90 0d       	add	r25, r0
    2ff0:	a4 9f       	mul	r26, r20
    2ff2:	80 0d       	add	r24, r0
    2ff4:	91 1d       	adc	r25, r1
    2ff6:	11 24       	eor	r1, r1
    2ff8:	08 95       	ret

00002ffa <malloc>:
    2ffa:	0f 93       	push	r16
    2ffc:	1f 93       	push	r17
    2ffe:	cf 93       	push	r28
    3000:	df 93       	push	r29
    3002:	82 30       	cpi	r24, 0x02	; 2
    3004:	91 05       	cpc	r25, r1
    3006:	10 f4       	brcc	.+4      	; 0x300c <malloc+0x12>
    3008:	82 e0       	ldi	r24, 0x02	; 2
    300a:	90 e0       	ldi	r25, 0x00	; 0
    300c:	e0 91 5c 40 	lds	r30, 0x405C	; 0x80405c <__flp>
    3010:	f0 91 5d 40 	lds	r31, 0x405D	; 0x80405d <__flp+0x1>
    3014:	20 e0       	ldi	r18, 0x00	; 0
    3016:	30 e0       	ldi	r19, 0x00	; 0
    3018:	a0 e0       	ldi	r26, 0x00	; 0
    301a:	b0 e0       	ldi	r27, 0x00	; 0
    301c:	30 97       	sbiw	r30, 0x00	; 0
    301e:	19 f1       	breq	.+70     	; 0x3066 <malloc+0x6c>
    3020:	40 81       	ld	r20, Z
    3022:	51 81       	ldd	r21, Z+1	; 0x01
    3024:	02 81       	ldd	r16, Z+2	; 0x02
    3026:	13 81       	ldd	r17, Z+3	; 0x03
    3028:	48 17       	cp	r20, r24
    302a:	59 07       	cpc	r21, r25
    302c:	c8 f0       	brcs	.+50     	; 0x3060 <malloc+0x66>
    302e:	84 17       	cp	r24, r20
    3030:	95 07       	cpc	r25, r21
    3032:	69 f4       	brne	.+26     	; 0x304e <malloc+0x54>
    3034:	10 97       	sbiw	r26, 0x00	; 0
    3036:	31 f0       	breq	.+12     	; 0x3044 <malloc+0x4a>
    3038:	12 96       	adiw	r26, 0x02	; 2
    303a:	0c 93       	st	X, r16
    303c:	12 97       	sbiw	r26, 0x02	; 2
    303e:	13 96       	adiw	r26, 0x03	; 3
    3040:	1c 93       	st	X, r17
    3042:	27 c0       	rjmp	.+78     	; 0x3092 <malloc+0x98>
    3044:	00 93 5c 40 	sts	0x405C, r16	; 0x80405c <__flp>
    3048:	10 93 5d 40 	sts	0x405D, r17	; 0x80405d <__flp+0x1>
    304c:	22 c0       	rjmp	.+68     	; 0x3092 <malloc+0x98>
    304e:	21 15       	cp	r18, r1
    3050:	31 05       	cpc	r19, r1
    3052:	19 f0       	breq	.+6      	; 0x305a <malloc+0x60>
    3054:	42 17       	cp	r20, r18
    3056:	53 07       	cpc	r21, r19
    3058:	18 f4       	brcc	.+6      	; 0x3060 <malloc+0x66>
    305a:	9a 01       	movw	r18, r20
    305c:	bd 01       	movw	r22, r26
    305e:	ef 01       	movw	r28, r30
    3060:	df 01       	movw	r26, r30
    3062:	f8 01       	movw	r30, r16
    3064:	db cf       	rjmp	.-74     	; 0x301c <malloc+0x22>
    3066:	21 15       	cp	r18, r1
    3068:	31 05       	cpc	r19, r1
    306a:	f9 f0       	breq	.+62     	; 0x30aa <malloc+0xb0>
    306c:	28 1b       	sub	r18, r24
    306e:	39 0b       	sbc	r19, r25
    3070:	24 30       	cpi	r18, 0x04	; 4
    3072:	31 05       	cpc	r19, r1
    3074:	80 f4       	brcc	.+32     	; 0x3096 <malloc+0x9c>
    3076:	8a 81       	ldd	r24, Y+2	; 0x02
    3078:	9b 81       	ldd	r25, Y+3	; 0x03
    307a:	61 15       	cp	r22, r1
    307c:	71 05       	cpc	r23, r1
    307e:	21 f0       	breq	.+8      	; 0x3088 <malloc+0x8e>
    3080:	fb 01       	movw	r30, r22
    3082:	82 83       	std	Z+2, r24	; 0x02
    3084:	93 83       	std	Z+3, r25	; 0x03
    3086:	04 c0       	rjmp	.+8      	; 0x3090 <malloc+0x96>
    3088:	80 93 5c 40 	sts	0x405C, r24	; 0x80405c <__flp>
    308c:	90 93 5d 40 	sts	0x405D, r25	; 0x80405d <__flp+0x1>
    3090:	fe 01       	movw	r30, r28
    3092:	32 96       	adiw	r30, 0x02	; 2
    3094:	44 c0       	rjmp	.+136    	; 0x311e <malloc+0x124>
    3096:	fe 01       	movw	r30, r28
    3098:	e2 0f       	add	r30, r18
    309a:	f3 1f       	adc	r31, r19
    309c:	81 93       	st	Z+, r24
    309e:	91 93       	st	Z+, r25
    30a0:	22 50       	subi	r18, 0x02	; 2
    30a2:	31 09       	sbc	r19, r1
    30a4:	28 83       	st	Y, r18
    30a6:	39 83       	std	Y+1, r19	; 0x01
    30a8:	3a c0       	rjmp	.+116    	; 0x311e <malloc+0x124>
    30aa:	20 91 5a 40 	lds	r18, 0x405A	; 0x80405a <__brkval>
    30ae:	30 91 5b 40 	lds	r19, 0x405B	; 0x80405b <__brkval+0x1>
    30b2:	23 2b       	or	r18, r19
    30b4:	41 f4       	brne	.+16     	; 0x30c6 <malloc+0xcc>
    30b6:	20 91 02 40 	lds	r18, 0x4002	; 0x804002 <__malloc_heap_start>
    30ba:	30 91 03 40 	lds	r19, 0x4003	; 0x804003 <__malloc_heap_start+0x1>
    30be:	20 93 5a 40 	sts	0x405A, r18	; 0x80405a <__brkval>
    30c2:	30 93 5b 40 	sts	0x405B, r19	; 0x80405b <__brkval+0x1>
    30c6:	20 91 00 40 	lds	r18, 0x4000	; 0x804000 <__DATA_REGION_ORIGIN__>
    30ca:	30 91 01 40 	lds	r19, 0x4001	; 0x804001 <__DATA_REGION_ORIGIN__+0x1>
    30ce:	21 15       	cp	r18, r1
    30d0:	31 05       	cpc	r19, r1
    30d2:	41 f4       	brne	.+16     	; 0x30e4 <malloc+0xea>
    30d4:	2d b7       	in	r18, 0x3d	; 61
    30d6:	3e b7       	in	r19, 0x3e	; 62
    30d8:	40 91 04 40 	lds	r20, 0x4004	; 0x804004 <__malloc_margin>
    30dc:	50 91 05 40 	lds	r21, 0x4005	; 0x804005 <__malloc_margin+0x1>
    30e0:	24 1b       	sub	r18, r20
    30e2:	35 0b       	sbc	r19, r21
    30e4:	e0 91 5a 40 	lds	r30, 0x405A	; 0x80405a <__brkval>
    30e8:	f0 91 5b 40 	lds	r31, 0x405B	; 0x80405b <__brkval+0x1>
    30ec:	e2 17       	cp	r30, r18
    30ee:	f3 07       	cpc	r31, r19
    30f0:	a0 f4       	brcc	.+40     	; 0x311a <malloc+0x120>
    30f2:	2e 1b       	sub	r18, r30
    30f4:	3f 0b       	sbc	r19, r31
    30f6:	28 17       	cp	r18, r24
    30f8:	39 07       	cpc	r19, r25
    30fa:	78 f0       	brcs	.+30     	; 0x311a <malloc+0x120>
    30fc:	ac 01       	movw	r20, r24
    30fe:	4e 5f       	subi	r20, 0xFE	; 254
    3100:	5f 4f       	sbci	r21, 0xFF	; 255
    3102:	24 17       	cp	r18, r20
    3104:	35 07       	cpc	r19, r21
    3106:	48 f0       	brcs	.+18     	; 0x311a <malloc+0x120>
    3108:	4e 0f       	add	r20, r30
    310a:	5f 1f       	adc	r21, r31
    310c:	40 93 5a 40 	sts	0x405A, r20	; 0x80405a <__brkval>
    3110:	50 93 5b 40 	sts	0x405B, r21	; 0x80405b <__brkval+0x1>
    3114:	81 93       	st	Z+, r24
    3116:	91 93       	st	Z+, r25
    3118:	02 c0       	rjmp	.+4      	; 0x311e <malloc+0x124>
    311a:	e0 e0       	ldi	r30, 0x00	; 0
    311c:	f0 e0       	ldi	r31, 0x00	; 0
    311e:	cf 01       	movw	r24, r30
    3120:	df 91       	pop	r29
    3122:	cf 91       	pop	r28
    3124:	1f 91       	pop	r17
    3126:	0f 91       	pop	r16
    3128:	08 95       	ret

0000312a <free>:
    312a:	cf 93       	push	r28
    312c:	df 93       	push	r29
    312e:	00 97       	sbiw	r24, 0x00	; 0
    3130:	09 f4       	brne	.+2      	; 0x3134 <free+0xa>
    3132:	81 c0       	rjmp	.+258    	; 0x3236 <free+0x10c>
    3134:	fc 01       	movw	r30, r24
    3136:	32 97       	sbiw	r30, 0x02	; 2
    3138:	12 82       	std	Z+2, r1	; 0x02
    313a:	13 82       	std	Z+3, r1	; 0x03
    313c:	a0 91 5c 40 	lds	r26, 0x405C	; 0x80405c <__flp>
    3140:	b0 91 5d 40 	lds	r27, 0x405D	; 0x80405d <__flp+0x1>
    3144:	10 97       	sbiw	r26, 0x00	; 0
    3146:	81 f4       	brne	.+32     	; 0x3168 <free+0x3e>
    3148:	20 81       	ld	r18, Z
    314a:	31 81       	ldd	r19, Z+1	; 0x01
    314c:	82 0f       	add	r24, r18
    314e:	93 1f       	adc	r25, r19
    3150:	20 91 5a 40 	lds	r18, 0x405A	; 0x80405a <__brkval>
    3154:	30 91 5b 40 	lds	r19, 0x405B	; 0x80405b <__brkval+0x1>
    3158:	28 17       	cp	r18, r24
    315a:	39 07       	cpc	r19, r25
    315c:	51 f5       	brne	.+84     	; 0x31b2 <free+0x88>
    315e:	e0 93 5a 40 	sts	0x405A, r30	; 0x80405a <__brkval>
    3162:	f0 93 5b 40 	sts	0x405B, r31	; 0x80405b <__brkval+0x1>
    3166:	67 c0       	rjmp	.+206    	; 0x3236 <free+0x10c>
    3168:	ed 01       	movw	r28, r26
    316a:	20 e0       	ldi	r18, 0x00	; 0
    316c:	30 e0       	ldi	r19, 0x00	; 0
    316e:	ce 17       	cp	r28, r30
    3170:	df 07       	cpc	r29, r31
    3172:	40 f4       	brcc	.+16     	; 0x3184 <free+0x5a>
    3174:	4a 81       	ldd	r20, Y+2	; 0x02
    3176:	5b 81       	ldd	r21, Y+3	; 0x03
    3178:	9e 01       	movw	r18, r28
    317a:	41 15       	cp	r20, r1
    317c:	51 05       	cpc	r21, r1
    317e:	f1 f0       	breq	.+60     	; 0x31bc <free+0x92>
    3180:	ea 01       	movw	r28, r20
    3182:	f5 cf       	rjmp	.-22     	; 0x316e <free+0x44>
    3184:	c2 83       	std	Z+2, r28	; 0x02
    3186:	d3 83       	std	Z+3, r29	; 0x03
    3188:	40 81       	ld	r20, Z
    318a:	51 81       	ldd	r21, Z+1	; 0x01
    318c:	84 0f       	add	r24, r20
    318e:	95 1f       	adc	r25, r21
    3190:	c8 17       	cp	r28, r24
    3192:	d9 07       	cpc	r29, r25
    3194:	59 f4       	brne	.+22     	; 0x31ac <free+0x82>
    3196:	88 81       	ld	r24, Y
    3198:	99 81       	ldd	r25, Y+1	; 0x01
    319a:	84 0f       	add	r24, r20
    319c:	95 1f       	adc	r25, r21
    319e:	02 96       	adiw	r24, 0x02	; 2
    31a0:	80 83       	st	Z, r24
    31a2:	91 83       	std	Z+1, r25	; 0x01
    31a4:	8a 81       	ldd	r24, Y+2	; 0x02
    31a6:	9b 81       	ldd	r25, Y+3	; 0x03
    31a8:	82 83       	std	Z+2, r24	; 0x02
    31aa:	93 83       	std	Z+3, r25	; 0x03
    31ac:	21 15       	cp	r18, r1
    31ae:	31 05       	cpc	r19, r1
    31b0:	29 f4       	brne	.+10     	; 0x31bc <free+0x92>
    31b2:	e0 93 5c 40 	sts	0x405C, r30	; 0x80405c <__flp>
    31b6:	f0 93 5d 40 	sts	0x405D, r31	; 0x80405d <__flp+0x1>
    31ba:	3d c0       	rjmp	.+122    	; 0x3236 <free+0x10c>
    31bc:	e9 01       	movw	r28, r18
    31be:	ea 83       	std	Y+2, r30	; 0x02
    31c0:	fb 83       	std	Y+3, r31	; 0x03
    31c2:	49 91       	ld	r20, Y+
    31c4:	59 91       	ld	r21, Y+
    31c6:	c4 0f       	add	r28, r20
    31c8:	d5 1f       	adc	r29, r21
    31ca:	ec 17       	cp	r30, r28
    31cc:	fd 07       	cpc	r31, r29
    31ce:	61 f4       	brne	.+24     	; 0x31e8 <free+0xbe>
    31d0:	80 81       	ld	r24, Z
    31d2:	91 81       	ldd	r25, Z+1	; 0x01
    31d4:	84 0f       	add	r24, r20
    31d6:	95 1f       	adc	r25, r21
    31d8:	02 96       	adiw	r24, 0x02	; 2
    31da:	e9 01       	movw	r28, r18
    31dc:	88 83       	st	Y, r24
    31de:	99 83       	std	Y+1, r25	; 0x01
    31e0:	82 81       	ldd	r24, Z+2	; 0x02
    31e2:	93 81       	ldd	r25, Z+3	; 0x03
    31e4:	8a 83       	std	Y+2, r24	; 0x02
    31e6:	9b 83       	std	Y+3, r25	; 0x03
    31e8:	e0 e0       	ldi	r30, 0x00	; 0
    31ea:	f0 e0       	ldi	r31, 0x00	; 0
    31ec:	12 96       	adiw	r26, 0x02	; 2
    31ee:	8d 91       	ld	r24, X+
    31f0:	9c 91       	ld	r25, X
    31f2:	13 97       	sbiw	r26, 0x03	; 3
    31f4:	00 97       	sbiw	r24, 0x00	; 0
    31f6:	19 f0       	breq	.+6      	; 0x31fe <free+0xd4>
    31f8:	fd 01       	movw	r30, r26
    31fa:	dc 01       	movw	r26, r24
    31fc:	f7 cf       	rjmp	.-18     	; 0x31ec <free+0xc2>
    31fe:	8d 91       	ld	r24, X+
    3200:	9c 91       	ld	r25, X
    3202:	11 97       	sbiw	r26, 0x01	; 1
    3204:	9d 01       	movw	r18, r26
    3206:	2e 5f       	subi	r18, 0xFE	; 254
    3208:	3f 4f       	sbci	r19, 0xFF	; 255
    320a:	82 0f       	add	r24, r18
    320c:	93 1f       	adc	r25, r19
    320e:	20 91 5a 40 	lds	r18, 0x405A	; 0x80405a <__brkval>
    3212:	30 91 5b 40 	lds	r19, 0x405B	; 0x80405b <__brkval+0x1>
    3216:	28 17       	cp	r18, r24
    3218:	39 07       	cpc	r19, r25
    321a:	69 f4       	brne	.+26     	; 0x3236 <free+0x10c>
    321c:	30 97       	sbiw	r30, 0x00	; 0
    321e:	29 f4       	brne	.+10     	; 0x322a <free+0x100>
    3220:	10 92 5c 40 	sts	0x405C, r1	; 0x80405c <__flp>
    3224:	10 92 5d 40 	sts	0x405D, r1	; 0x80405d <__flp+0x1>
    3228:	02 c0       	rjmp	.+4      	; 0x322e <free+0x104>
    322a:	12 82       	std	Z+2, r1	; 0x02
    322c:	13 82       	std	Z+3, r1	; 0x03
    322e:	a0 93 5a 40 	sts	0x405A, r26	; 0x80405a <__brkval>
    3232:	b0 93 5b 40 	sts	0x405B, r27	; 0x80405b <__brkval+0x1>
    3236:	df 91       	pop	r29
    3238:	cf 91       	pop	r28
    323a:	08 95       	ret

0000323c <memcmp>:
    323c:	fb 01       	movw	r30, r22
    323e:	dc 01       	movw	r26, r24
    3240:	04 c0       	rjmp	.+8      	; 0x324a <memcmp+0xe>
    3242:	8d 91       	ld	r24, X+
    3244:	01 90       	ld	r0, Z+
    3246:	80 19       	sub	r24, r0
    3248:	21 f4       	brne	.+8      	; 0x3252 <memcmp+0x16>
    324a:	41 50       	subi	r20, 0x01	; 1
    324c:	50 40       	sbci	r21, 0x00	; 0
    324e:	c8 f7       	brcc	.-14     	; 0x3242 <memcmp+0x6>
    3250:	88 1b       	sub	r24, r24
    3252:	99 0b       	sbc	r25, r25
    3254:	08 95       	ret

00003256 <memcpy>:
    3256:	fb 01       	movw	r30, r22
    3258:	dc 01       	movw	r26, r24
    325a:	02 c0       	rjmp	.+4      	; 0x3260 <memcpy+0xa>
    325c:	01 90       	ld	r0, Z+
    325e:	0d 92       	st	X+, r0
    3260:	41 50       	subi	r20, 0x01	; 1
    3262:	50 40       	sbci	r21, 0x00	; 0
    3264:	d8 f7       	brcc	.-10     	; 0x325c <memcpy+0x6>
    3266:	08 95       	ret

00003268 <memset>:
    3268:	dc 01       	movw	r26, r24
    326a:	01 c0       	rjmp	.+2      	; 0x326e <memset+0x6>
    326c:	6d 93       	st	X+, r22
    326e:	41 50       	subi	r20, 0x01	; 1
    3270:	50 40       	sbci	r21, 0x00	; 0
    3272:	e0 f7       	brcc	.-8      	; 0x326c <memset+0x4>
    3274:	08 95       	ret

00003276 <strchr>:
    3276:	fc 01       	movw	r30, r24
    3278:	81 91       	ld	r24, Z+
    327a:	86 17       	cp	r24, r22
    327c:	21 f0       	breq	.+8      	; 0x3286 <strchr+0x10>
    327e:	88 23       	and	r24, r24
    3280:	d9 f7       	brne	.-10     	; 0x3278 <strchr+0x2>
    3282:	99 27       	eor	r25, r25
    3284:	08 95       	ret
    3286:	31 97       	sbiw	r30, 0x01	; 1
    3288:	cf 01       	movw	r24, r30
    328a:	08 95       	ret

0000328c <sprintf>:
    328c:	0f 93       	push	r16
    328e:	1f 93       	push	r17
    3290:	cf 93       	push	r28
    3292:	df 93       	push	r29
    3294:	cd b7       	in	r28, 0x3d	; 61
    3296:	de b7       	in	r29, 0x3e	; 62
    3298:	2e 97       	sbiw	r28, 0x0e	; 14
    329a:	cd bf       	out	0x3d, r28	; 61
    329c:	de bf       	out	0x3e, r29	; 62
    329e:	0d 89       	ldd	r16, Y+21	; 0x15
    32a0:	1e 89       	ldd	r17, Y+22	; 0x16
    32a2:	86 e0       	ldi	r24, 0x06	; 6
    32a4:	8c 83       	std	Y+4, r24	; 0x04
    32a6:	09 83       	std	Y+1, r16	; 0x01
    32a8:	1a 83       	std	Y+2, r17	; 0x02
    32aa:	8f ef       	ldi	r24, 0xFF	; 255
    32ac:	9f e7       	ldi	r25, 0x7F	; 127
    32ae:	8d 83       	std	Y+5, r24	; 0x05
    32b0:	9e 83       	std	Y+6, r25	; 0x06
    32b2:	ae 01       	movw	r20, r28
    32b4:	47 5e       	subi	r20, 0xE7	; 231
    32b6:	5f 4f       	sbci	r21, 0xFF	; 255
    32b8:	6f 89       	ldd	r22, Y+23	; 0x17
    32ba:	78 8d       	ldd	r23, Y+24	; 0x18
    32bc:	ce 01       	movw	r24, r28
    32be:	01 96       	adiw	r24, 0x01	; 1
    32c0:	0e 94 8b 19 	call	0x3316	; 0x3316 <vfprintf>
    32c4:	ef 81       	ldd	r30, Y+7	; 0x07
    32c6:	f8 85       	ldd	r31, Y+8	; 0x08
    32c8:	e0 0f       	add	r30, r16
    32ca:	f1 1f       	adc	r31, r17
    32cc:	10 82       	st	Z, r1
    32ce:	2e 96       	adiw	r28, 0x0e	; 14
    32d0:	cd bf       	out	0x3d, r28	; 61
    32d2:	de bf       	out	0x3e, r29	; 62
    32d4:	df 91       	pop	r29
    32d6:	cf 91       	pop	r28
    32d8:	1f 91       	pop	r17
    32da:	0f 91       	pop	r16
    32dc:	08 95       	ret

000032de <sscanf>:
    32de:	cf 93       	push	r28
    32e0:	df 93       	push	r29
    32e2:	cd b7       	in	r28, 0x3d	; 61
    32e4:	de b7       	in	r29, 0x3e	; 62
    32e6:	2e 97       	sbiw	r28, 0x0e	; 14
    32e8:	cd bf       	out	0x3d, r28	; 61
    32ea:	de bf       	out	0x3e, r29	; 62
    32ec:	85 e0       	ldi	r24, 0x05	; 5
    32ee:	8c 83       	std	Y+4, r24	; 0x04
    32f0:	8b 89       	ldd	r24, Y+19	; 0x13
    32f2:	9c 89       	ldd	r25, Y+20	; 0x14
    32f4:	89 83       	std	Y+1, r24	; 0x01
    32f6:	9a 83       	std	Y+2, r25	; 0x02
    32f8:	ae 01       	movw	r20, r28
    32fa:	49 5e       	subi	r20, 0xE9	; 233
    32fc:	5f 4f       	sbci	r21, 0xFF	; 255
    32fe:	6d 89       	ldd	r22, Y+21	; 0x15
    3300:	7e 89       	ldd	r23, Y+22	; 0x16
    3302:	ce 01       	movw	r24, r28
    3304:	01 96       	adiw	r24, 0x01	; 1
    3306:	0e 94 48 1d 	call	0x3a90	; 0x3a90 <vfscanf>
    330a:	2e 96       	adiw	r28, 0x0e	; 14
    330c:	cd bf       	out	0x3d, r28	; 61
    330e:	de bf       	out	0x3e, r29	; 62
    3310:	df 91       	pop	r29
    3312:	cf 91       	pop	r28
    3314:	08 95       	ret

00003316 <vfprintf>:
    3316:	2f 92       	push	r2
    3318:	3f 92       	push	r3
    331a:	4f 92       	push	r4
    331c:	5f 92       	push	r5
    331e:	6f 92       	push	r6
    3320:	7f 92       	push	r7
    3322:	8f 92       	push	r8
    3324:	9f 92       	push	r9
    3326:	af 92       	push	r10
    3328:	bf 92       	push	r11
    332a:	cf 92       	push	r12
    332c:	df 92       	push	r13
    332e:	ef 92       	push	r14
    3330:	ff 92       	push	r15
    3332:	0f 93       	push	r16
    3334:	1f 93       	push	r17
    3336:	cf 93       	push	r28
    3338:	df 93       	push	r29
    333a:	cd b7       	in	r28, 0x3d	; 61
    333c:	de b7       	in	r29, 0x3e	; 62
    333e:	2b 97       	sbiw	r28, 0x0b	; 11
    3340:	cd bf       	out	0x3d, r28	; 61
    3342:	de bf       	out	0x3e, r29	; 62
    3344:	6c 01       	movw	r12, r24
    3346:	7b 01       	movw	r14, r22
    3348:	8a 01       	movw	r16, r20
    334a:	fc 01       	movw	r30, r24
    334c:	16 82       	std	Z+6, r1	; 0x06
    334e:	17 82       	std	Z+7, r1	; 0x07
    3350:	83 81       	ldd	r24, Z+3	; 0x03
    3352:	81 ff       	sbrs	r24, 1
    3354:	cc c1       	rjmp	.+920    	; 0x36ee <vfprintf+0x3d8>
    3356:	ce 01       	movw	r24, r28
    3358:	01 96       	adiw	r24, 0x01	; 1
    335a:	3c 01       	movw	r6, r24
    335c:	f6 01       	movw	r30, r12
    335e:	93 81       	ldd	r25, Z+3	; 0x03
    3360:	f7 01       	movw	r30, r14
    3362:	93 fd       	sbrc	r25, 3
    3364:	85 91       	lpm	r24, Z+
    3366:	93 ff       	sbrs	r25, 3
    3368:	81 91       	ld	r24, Z+
    336a:	7f 01       	movw	r14, r30
    336c:	88 23       	and	r24, r24
    336e:	09 f4       	brne	.+2      	; 0x3372 <vfprintf+0x5c>
    3370:	ba c1       	rjmp	.+884    	; 0x36e6 <vfprintf+0x3d0>
    3372:	85 32       	cpi	r24, 0x25	; 37
    3374:	39 f4       	brne	.+14     	; 0x3384 <vfprintf+0x6e>
    3376:	93 fd       	sbrc	r25, 3
    3378:	85 91       	lpm	r24, Z+
    337a:	93 ff       	sbrs	r25, 3
    337c:	81 91       	ld	r24, Z+
    337e:	7f 01       	movw	r14, r30
    3380:	85 32       	cpi	r24, 0x25	; 37
    3382:	29 f4       	brne	.+10     	; 0x338e <vfprintf+0x78>
    3384:	b6 01       	movw	r22, r12
    3386:	90 e0       	ldi	r25, 0x00	; 0
    3388:	0e 94 d5 1e 	call	0x3daa	; 0x3daa <fputc>
    338c:	e7 cf       	rjmp	.-50     	; 0x335c <vfprintf+0x46>
    338e:	91 2c       	mov	r9, r1
    3390:	21 2c       	mov	r2, r1
    3392:	31 2c       	mov	r3, r1
    3394:	ff e1       	ldi	r31, 0x1F	; 31
    3396:	f3 15       	cp	r31, r3
    3398:	d8 f0       	brcs	.+54     	; 0x33d0 <vfprintf+0xba>
    339a:	8b 32       	cpi	r24, 0x2B	; 43
    339c:	79 f0       	breq	.+30     	; 0x33bc <vfprintf+0xa6>
    339e:	38 f4       	brcc	.+14     	; 0x33ae <vfprintf+0x98>
    33a0:	80 32       	cpi	r24, 0x20	; 32
    33a2:	79 f0       	breq	.+30     	; 0x33c2 <vfprintf+0xac>
    33a4:	83 32       	cpi	r24, 0x23	; 35
    33a6:	a1 f4       	brne	.+40     	; 0x33d0 <vfprintf+0xba>
    33a8:	23 2d       	mov	r18, r3
    33aa:	20 61       	ori	r18, 0x10	; 16
    33ac:	1d c0       	rjmp	.+58     	; 0x33e8 <vfprintf+0xd2>
    33ae:	8d 32       	cpi	r24, 0x2D	; 45
    33b0:	61 f0       	breq	.+24     	; 0x33ca <vfprintf+0xb4>
    33b2:	80 33       	cpi	r24, 0x30	; 48
    33b4:	69 f4       	brne	.+26     	; 0x33d0 <vfprintf+0xba>
    33b6:	23 2d       	mov	r18, r3
    33b8:	21 60       	ori	r18, 0x01	; 1
    33ba:	16 c0       	rjmp	.+44     	; 0x33e8 <vfprintf+0xd2>
    33bc:	83 2d       	mov	r24, r3
    33be:	82 60       	ori	r24, 0x02	; 2
    33c0:	38 2e       	mov	r3, r24
    33c2:	e3 2d       	mov	r30, r3
    33c4:	e4 60       	ori	r30, 0x04	; 4
    33c6:	3e 2e       	mov	r3, r30
    33c8:	2a c0       	rjmp	.+84     	; 0x341e <vfprintf+0x108>
    33ca:	f3 2d       	mov	r31, r3
    33cc:	f8 60       	ori	r31, 0x08	; 8
    33ce:	1d c0       	rjmp	.+58     	; 0x340a <vfprintf+0xf4>
    33d0:	37 fc       	sbrc	r3, 7
    33d2:	2d c0       	rjmp	.+90     	; 0x342e <vfprintf+0x118>
    33d4:	20 ed       	ldi	r18, 0xD0	; 208
    33d6:	28 0f       	add	r18, r24
    33d8:	2a 30       	cpi	r18, 0x0A	; 10
    33da:	40 f0       	brcs	.+16     	; 0x33ec <vfprintf+0xd6>
    33dc:	8e 32       	cpi	r24, 0x2E	; 46
    33de:	b9 f4       	brne	.+46     	; 0x340e <vfprintf+0xf8>
    33e0:	36 fc       	sbrc	r3, 6
    33e2:	81 c1       	rjmp	.+770    	; 0x36e6 <vfprintf+0x3d0>
    33e4:	23 2d       	mov	r18, r3
    33e6:	20 64       	ori	r18, 0x40	; 64
    33e8:	32 2e       	mov	r3, r18
    33ea:	19 c0       	rjmp	.+50     	; 0x341e <vfprintf+0x108>
    33ec:	36 fe       	sbrs	r3, 6
    33ee:	06 c0       	rjmp	.+12     	; 0x33fc <vfprintf+0xe6>
    33f0:	8a e0       	ldi	r24, 0x0A	; 10
    33f2:	98 9e       	mul	r9, r24
    33f4:	20 0d       	add	r18, r0
    33f6:	11 24       	eor	r1, r1
    33f8:	92 2e       	mov	r9, r18
    33fa:	11 c0       	rjmp	.+34     	; 0x341e <vfprintf+0x108>
    33fc:	ea e0       	ldi	r30, 0x0A	; 10
    33fe:	2e 9e       	mul	r2, r30
    3400:	20 0d       	add	r18, r0
    3402:	11 24       	eor	r1, r1
    3404:	22 2e       	mov	r2, r18
    3406:	f3 2d       	mov	r31, r3
    3408:	f0 62       	ori	r31, 0x20	; 32
    340a:	3f 2e       	mov	r3, r31
    340c:	08 c0       	rjmp	.+16     	; 0x341e <vfprintf+0x108>
    340e:	8c 36       	cpi	r24, 0x6C	; 108
    3410:	21 f4       	brne	.+8      	; 0x341a <vfprintf+0x104>
    3412:	83 2d       	mov	r24, r3
    3414:	80 68       	ori	r24, 0x80	; 128
    3416:	38 2e       	mov	r3, r24
    3418:	02 c0       	rjmp	.+4      	; 0x341e <vfprintf+0x108>
    341a:	88 36       	cpi	r24, 0x68	; 104
    341c:	41 f4       	brne	.+16     	; 0x342e <vfprintf+0x118>
    341e:	f7 01       	movw	r30, r14
    3420:	93 fd       	sbrc	r25, 3
    3422:	85 91       	lpm	r24, Z+
    3424:	93 ff       	sbrs	r25, 3
    3426:	81 91       	ld	r24, Z+
    3428:	7f 01       	movw	r14, r30
    342a:	81 11       	cpse	r24, r1
    342c:	b3 cf       	rjmp	.-154    	; 0x3394 <vfprintf+0x7e>
    342e:	98 2f       	mov	r25, r24
    3430:	9f 7d       	andi	r25, 0xDF	; 223
    3432:	95 54       	subi	r25, 0x45	; 69
    3434:	93 30       	cpi	r25, 0x03	; 3
    3436:	28 f4       	brcc	.+10     	; 0x3442 <vfprintf+0x12c>
    3438:	0c 5f       	subi	r16, 0xFC	; 252
    343a:	1f 4f       	sbci	r17, 0xFF	; 255
    343c:	9f e3       	ldi	r25, 0x3F	; 63
    343e:	99 83       	std	Y+1, r25	; 0x01
    3440:	0d c0       	rjmp	.+26     	; 0x345c <vfprintf+0x146>
    3442:	83 36       	cpi	r24, 0x63	; 99
    3444:	31 f0       	breq	.+12     	; 0x3452 <vfprintf+0x13c>
    3446:	83 37       	cpi	r24, 0x73	; 115
    3448:	71 f0       	breq	.+28     	; 0x3466 <vfprintf+0x150>
    344a:	83 35       	cpi	r24, 0x53	; 83
    344c:	09 f0       	breq	.+2      	; 0x3450 <vfprintf+0x13a>
    344e:	59 c0       	rjmp	.+178    	; 0x3502 <vfprintf+0x1ec>
    3450:	21 c0       	rjmp	.+66     	; 0x3494 <vfprintf+0x17e>
    3452:	f8 01       	movw	r30, r16
    3454:	80 81       	ld	r24, Z
    3456:	89 83       	std	Y+1, r24	; 0x01
    3458:	0e 5f       	subi	r16, 0xFE	; 254
    345a:	1f 4f       	sbci	r17, 0xFF	; 255
    345c:	88 24       	eor	r8, r8
    345e:	83 94       	inc	r8
    3460:	91 2c       	mov	r9, r1
    3462:	53 01       	movw	r10, r6
    3464:	13 c0       	rjmp	.+38     	; 0x348c <vfprintf+0x176>
    3466:	28 01       	movw	r4, r16
    3468:	f2 e0       	ldi	r31, 0x02	; 2
    346a:	4f 0e       	add	r4, r31
    346c:	51 1c       	adc	r5, r1
    346e:	f8 01       	movw	r30, r16
    3470:	a0 80       	ld	r10, Z
    3472:	b1 80       	ldd	r11, Z+1	; 0x01
    3474:	36 fe       	sbrs	r3, 6
    3476:	03 c0       	rjmp	.+6      	; 0x347e <vfprintf+0x168>
    3478:	69 2d       	mov	r22, r9
    347a:	70 e0       	ldi	r23, 0x00	; 0
    347c:	02 c0       	rjmp	.+4      	; 0x3482 <vfprintf+0x16c>
    347e:	6f ef       	ldi	r22, 0xFF	; 255
    3480:	7f ef       	ldi	r23, 0xFF	; 255
    3482:	c5 01       	movw	r24, r10
    3484:	0e 94 8c 1e 	call	0x3d18	; 0x3d18 <strnlen>
    3488:	4c 01       	movw	r8, r24
    348a:	82 01       	movw	r16, r4
    348c:	f3 2d       	mov	r31, r3
    348e:	ff 77       	andi	r31, 0x7F	; 127
    3490:	3f 2e       	mov	r3, r31
    3492:	16 c0       	rjmp	.+44     	; 0x34c0 <vfprintf+0x1aa>
    3494:	28 01       	movw	r4, r16
    3496:	22 e0       	ldi	r18, 0x02	; 2
    3498:	42 0e       	add	r4, r18
    349a:	51 1c       	adc	r5, r1
    349c:	f8 01       	movw	r30, r16
    349e:	a0 80       	ld	r10, Z
    34a0:	b1 80       	ldd	r11, Z+1	; 0x01
    34a2:	36 fe       	sbrs	r3, 6
    34a4:	03 c0       	rjmp	.+6      	; 0x34ac <vfprintf+0x196>
    34a6:	69 2d       	mov	r22, r9
    34a8:	70 e0       	ldi	r23, 0x00	; 0
    34aa:	02 c0       	rjmp	.+4      	; 0x34b0 <vfprintf+0x19a>
    34ac:	6f ef       	ldi	r22, 0xFF	; 255
    34ae:	7f ef       	ldi	r23, 0xFF	; 255
    34b0:	c5 01       	movw	r24, r10
    34b2:	0e 94 81 1e 	call	0x3d02	; 0x3d02 <strnlen_P>
    34b6:	4c 01       	movw	r8, r24
    34b8:	f3 2d       	mov	r31, r3
    34ba:	f0 68       	ori	r31, 0x80	; 128
    34bc:	3f 2e       	mov	r3, r31
    34be:	82 01       	movw	r16, r4
    34c0:	33 fc       	sbrc	r3, 3
    34c2:	1b c0       	rjmp	.+54     	; 0x34fa <vfprintf+0x1e4>
    34c4:	82 2d       	mov	r24, r2
    34c6:	90 e0       	ldi	r25, 0x00	; 0
    34c8:	88 16       	cp	r8, r24
    34ca:	99 06       	cpc	r9, r25
    34cc:	b0 f4       	brcc	.+44     	; 0x34fa <vfprintf+0x1e4>
    34ce:	b6 01       	movw	r22, r12
    34d0:	80 e2       	ldi	r24, 0x20	; 32
    34d2:	90 e0       	ldi	r25, 0x00	; 0
    34d4:	0e 94 d5 1e 	call	0x3daa	; 0x3daa <fputc>
    34d8:	2a 94       	dec	r2
    34da:	f4 cf       	rjmp	.-24     	; 0x34c4 <vfprintf+0x1ae>
    34dc:	f5 01       	movw	r30, r10
    34de:	37 fc       	sbrc	r3, 7
    34e0:	85 91       	lpm	r24, Z+
    34e2:	37 fe       	sbrs	r3, 7
    34e4:	81 91       	ld	r24, Z+
    34e6:	5f 01       	movw	r10, r30
    34e8:	b6 01       	movw	r22, r12
    34ea:	90 e0       	ldi	r25, 0x00	; 0
    34ec:	0e 94 d5 1e 	call	0x3daa	; 0x3daa <fputc>
    34f0:	21 10       	cpse	r2, r1
    34f2:	2a 94       	dec	r2
    34f4:	21 e0       	ldi	r18, 0x01	; 1
    34f6:	82 1a       	sub	r8, r18
    34f8:	91 08       	sbc	r9, r1
    34fa:	81 14       	cp	r8, r1
    34fc:	91 04       	cpc	r9, r1
    34fe:	71 f7       	brne	.-36     	; 0x34dc <vfprintf+0x1c6>
    3500:	e8 c0       	rjmp	.+464    	; 0x36d2 <vfprintf+0x3bc>
    3502:	84 36       	cpi	r24, 0x64	; 100
    3504:	11 f0       	breq	.+4      	; 0x350a <vfprintf+0x1f4>
    3506:	89 36       	cpi	r24, 0x69	; 105
    3508:	41 f5       	brne	.+80     	; 0x355a <vfprintf+0x244>
    350a:	f8 01       	movw	r30, r16
    350c:	37 fe       	sbrs	r3, 7
    350e:	07 c0       	rjmp	.+14     	; 0x351e <vfprintf+0x208>
    3510:	60 81       	ld	r22, Z
    3512:	71 81       	ldd	r23, Z+1	; 0x01
    3514:	82 81       	ldd	r24, Z+2	; 0x02
    3516:	93 81       	ldd	r25, Z+3	; 0x03
    3518:	0c 5f       	subi	r16, 0xFC	; 252
    351a:	1f 4f       	sbci	r17, 0xFF	; 255
    351c:	08 c0       	rjmp	.+16     	; 0x352e <vfprintf+0x218>
    351e:	60 81       	ld	r22, Z
    3520:	71 81       	ldd	r23, Z+1	; 0x01
    3522:	07 2e       	mov	r0, r23
    3524:	00 0c       	add	r0, r0
    3526:	88 0b       	sbc	r24, r24
    3528:	99 0b       	sbc	r25, r25
    352a:	0e 5f       	subi	r16, 0xFE	; 254
    352c:	1f 4f       	sbci	r17, 0xFF	; 255
    352e:	f3 2d       	mov	r31, r3
    3530:	ff 76       	andi	r31, 0x6F	; 111
    3532:	3f 2e       	mov	r3, r31
    3534:	97 ff       	sbrs	r25, 7
    3536:	09 c0       	rjmp	.+18     	; 0x354a <vfprintf+0x234>
    3538:	90 95       	com	r25
    353a:	80 95       	com	r24
    353c:	70 95       	com	r23
    353e:	61 95       	neg	r22
    3540:	7f 4f       	sbci	r23, 0xFF	; 255
    3542:	8f 4f       	sbci	r24, 0xFF	; 255
    3544:	9f 4f       	sbci	r25, 0xFF	; 255
    3546:	f0 68       	ori	r31, 0x80	; 128
    3548:	3f 2e       	mov	r3, r31
    354a:	2a e0       	ldi	r18, 0x0A	; 10
    354c:	30 e0       	ldi	r19, 0x00	; 0
    354e:	a3 01       	movw	r20, r6
    3550:	0e 94 2a 1f 	call	0x3e54	; 0x3e54 <__ultoa_invert>
    3554:	88 2e       	mov	r8, r24
    3556:	86 18       	sub	r8, r6
    3558:	45 c0       	rjmp	.+138    	; 0x35e4 <vfprintf+0x2ce>
    355a:	85 37       	cpi	r24, 0x75	; 117
    355c:	31 f4       	brne	.+12     	; 0x356a <vfprintf+0x254>
    355e:	23 2d       	mov	r18, r3
    3560:	2f 7e       	andi	r18, 0xEF	; 239
    3562:	b2 2e       	mov	r11, r18
    3564:	2a e0       	ldi	r18, 0x0A	; 10
    3566:	30 e0       	ldi	r19, 0x00	; 0
    3568:	25 c0       	rjmp	.+74     	; 0x35b4 <vfprintf+0x29e>
    356a:	93 2d       	mov	r25, r3
    356c:	99 7f       	andi	r25, 0xF9	; 249
    356e:	b9 2e       	mov	r11, r25
    3570:	8f 36       	cpi	r24, 0x6F	; 111
    3572:	c1 f0       	breq	.+48     	; 0x35a4 <vfprintf+0x28e>
    3574:	18 f4       	brcc	.+6      	; 0x357c <vfprintf+0x266>
    3576:	88 35       	cpi	r24, 0x58	; 88
    3578:	79 f0       	breq	.+30     	; 0x3598 <vfprintf+0x282>
    357a:	b5 c0       	rjmp	.+362    	; 0x36e6 <vfprintf+0x3d0>
    357c:	80 37       	cpi	r24, 0x70	; 112
    357e:	19 f0       	breq	.+6      	; 0x3586 <vfprintf+0x270>
    3580:	88 37       	cpi	r24, 0x78	; 120
    3582:	21 f0       	breq	.+8      	; 0x358c <vfprintf+0x276>
    3584:	b0 c0       	rjmp	.+352    	; 0x36e6 <vfprintf+0x3d0>
    3586:	e9 2f       	mov	r30, r25
    3588:	e0 61       	ori	r30, 0x10	; 16
    358a:	be 2e       	mov	r11, r30
    358c:	b4 fe       	sbrs	r11, 4
    358e:	0d c0       	rjmp	.+26     	; 0x35aa <vfprintf+0x294>
    3590:	fb 2d       	mov	r31, r11
    3592:	f4 60       	ori	r31, 0x04	; 4
    3594:	bf 2e       	mov	r11, r31
    3596:	09 c0       	rjmp	.+18     	; 0x35aa <vfprintf+0x294>
    3598:	34 fe       	sbrs	r3, 4
    359a:	0a c0       	rjmp	.+20     	; 0x35b0 <vfprintf+0x29a>
    359c:	29 2f       	mov	r18, r25
    359e:	26 60       	ori	r18, 0x06	; 6
    35a0:	b2 2e       	mov	r11, r18
    35a2:	06 c0       	rjmp	.+12     	; 0x35b0 <vfprintf+0x29a>
    35a4:	28 e0       	ldi	r18, 0x08	; 8
    35a6:	30 e0       	ldi	r19, 0x00	; 0
    35a8:	05 c0       	rjmp	.+10     	; 0x35b4 <vfprintf+0x29e>
    35aa:	20 e1       	ldi	r18, 0x10	; 16
    35ac:	30 e0       	ldi	r19, 0x00	; 0
    35ae:	02 c0       	rjmp	.+4      	; 0x35b4 <vfprintf+0x29e>
    35b0:	20 e1       	ldi	r18, 0x10	; 16
    35b2:	32 e0       	ldi	r19, 0x02	; 2
    35b4:	f8 01       	movw	r30, r16
    35b6:	b7 fe       	sbrs	r11, 7
    35b8:	07 c0       	rjmp	.+14     	; 0x35c8 <vfprintf+0x2b2>
    35ba:	60 81       	ld	r22, Z
    35bc:	71 81       	ldd	r23, Z+1	; 0x01
    35be:	82 81       	ldd	r24, Z+2	; 0x02
    35c0:	93 81       	ldd	r25, Z+3	; 0x03
    35c2:	0c 5f       	subi	r16, 0xFC	; 252
    35c4:	1f 4f       	sbci	r17, 0xFF	; 255
    35c6:	06 c0       	rjmp	.+12     	; 0x35d4 <vfprintf+0x2be>
    35c8:	60 81       	ld	r22, Z
    35ca:	71 81       	ldd	r23, Z+1	; 0x01
    35cc:	80 e0       	ldi	r24, 0x00	; 0
    35ce:	90 e0       	ldi	r25, 0x00	; 0
    35d0:	0e 5f       	subi	r16, 0xFE	; 254
    35d2:	1f 4f       	sbci	r17, 0xFF	; 255
    35d4:	a3 01       	movw	r20, r6
    35d6:	0e 94 2a 1f 	call	0x3e54	; 0x3e54 <__ultoa_invert>
    35da:	88 2e       	mov	r8, r24
    35dc:	86 18       	sub	r8, r6
    35de:	fb 2d       	mov	r31, r11
    35e0:	ff 77       	andi	r31, 0x7F	; 127
    35e2:	3f 2e       	mov	r3, r31
    35e4:	36 fe       	sbrs	r3, 6
    35e6:	0d c0       	rjmp	.+26     	; 0x3602 <vfprintf+0x2ec>
    35e8:	23 2d       	mov	r18, r3
    35ea:	2e 7f       	andi	r18, 0xFE	; 254
    35ec:	a2 2e       	mov	r10, r18
    35ee:	89 14       	cp	r8, r9
    35f0:	58 f4       	brcc	.+22     	; 0x3608 <vfprintf+0x2f2>
    35f2:	34 fe       	sbrs	r3, 4
    35f4:	0b c0       	rjmp	.+22     	; 0x360c <vfprintf+0x2f6>
    35f6:	32 fc       	sbrc	r3, 2
    35f8:	09 c0       	rjmp	.+18     	; 0x360c <vfprintf+0x2f6>
    35fa:	83 2d       	mov	r24, r3
    35fc:	8e 7e       	andi	r24, 0xEE	; 238
    35fe:	a8 2e       	mov	r10, r24
    3600:	05 c0       	rjmp	.+10     	; 0x360c <vfprintf+0x2f6>
    3602:	b8 2c       	mov	r11, r8
    3604:	a3 2c       	mov	r10, r3
    3606:	03 c0       	rjmp	.+6      	; 0x360e <vfprintf+0x2f8>
    3608:	b8 2c       	mov	r11, r8
    360a:	01 c0       	rjmp	.+2      	; 0x360e <vfprintf+0x2f8>
    360c:	b9 2c       	mov	r11, r9
    360e:	a4 fe       	sbrs	r10, 4
    3610:	0f c0       	rjmp	.+30     	; 0x3630 <vfprintf+0x31a>
    3612:	fe 01       	movw	r30, r28
    3614:	e8 0d       	add	r30, r8
    3616:	f1 1d       	adc	r31, r1
    3618:	80 81       	ld	r24, Z
    361a:	80 33       	cpi	r24, 0x30	; 48
    361c:	21 f4       	brne	.+8      	; 0x3626 <vfprintf+0x310>
    361e:	9a 2d       	mov	r25, r10
    3620:	99 7e       	andi	r25, 0xE9	; 233
    3622:	a9 2e       	mov	r10, r25
    3624:	09 c0       	rjmp	.+18     	; 0x3638 <vfprintf+0x322>
    3626:	a2 fe       	sbrs	r10, 2
    3628:	06 c0       	rjmp	.+12     	; 0x3636 <vfprintf+0x320>
    362a:	b3 94       	inc	r11
    362c:	b3 94       	inc	r11
    362e:	04 c0       	rjmp	.+8      	; 0x3638 <vfprintf+0x322>
    3630:	8a 2d       	mov	r24, r10
    3632:	86 78       	andi	r24, 0x86	; 134
    3634:	09 f0       	breq	.+2      	; 0x3638 <vfprintf+0x322>
    3636:	b3 94       	inc	r11
    3638:	a3 fc       	sbrc	r10, 3
    363a:	11 c0       	rjmp	.+34     	; 0x365e <vfprintf+0x348>
    363c:	a0 fe       	sbrs	r10, 0
    363e:	06 c0       	rjmp	.+12     	; 0x364c <vfprintf+0x336>
    3640:	b2 14       	cp	r11, r2
    3642:	88 f4       	brcc	.+34     	; 0x3666 <vfprintf+0x350>
    3644:	28 0c       	add	r2, r8
    3646:	92 2c       	mov	r9, r2
    3648:	9b 18       	sub	r9, r11
    364a:	0e c0       	rjmp	.+28     	; 0x3668 <vfprintf+0x352>
    364c:	b2 14       	cp	r11, r2
    364e:	60 f4       	brcc	.+24     	; 0x3668 <vfprintf+0x352>
    3650:	b6 01       	movw	r22, r12
    3652:	80 e2       	ldi	r24, 0x20	; 32
    3654:	90 e0       	ldi	r25, 0x00	; 0
    3656:	0e 94 d5 1e 	call	0x3daa	; 0x3daa <fputc>
    365a:	b3 94       	inc	r11
    365c:	f7 cf       	rjmp	.-18     	; 0x364c <vfprintf+0x336>
    365e:	b2 14       	cp	r11, r2
    3660:	18 f4       	brcc	.+6      	; 0x3668 <vfprintf+0x352>
    3662:	2b 18       	sub	r2, r11
    3664:	02 c0       	rjmp	.+4      	; 0x366a <vfprintf+0x354>
    3666:	98 2c       	mov	r9, r8
    3668:	21 2c       	mov	r2, r1
    366a:	a4 fe       	sbrs	r10, 4
    366c:	10 c0       	rjmp	.+32     	; 0x368e <vfprintf+0x378>
    366e:	b6 01       	movw	r22, r12
    3670:	80 e3       	ldi	r24, 0x30	; 48
    3672:	90 e0       	ldi	r25, 0x00	; 0
    3674:	0e 94 d5 1e 	call	0x3daa	; 0x3daa <fputc>
    3678:	a2 fe       	sbrs	r10, 2
    367a:	17 c0       	rjmp	.+46     	; 0x36aa <vfprintf+0x394>
    367c:	a1 fc       	sbrc	r10, 1
    367e:	03 c0       	rjmp	.+6      	; 0x3686 <vfprintf+0x370>
    3680:	88 e7       	ldi	r24, 0x78	; 120
    3682:	90 e0       	ldi	r25, 0x00	; 0
    3684:	02 c0       	rjmp	.+4      	; 0x368a <vfprintf+0x374>
    3686:	88 e5       	ldi	r24, 0x58	; 88
    3688:	90 e0       	ldi	r25, 0x00	; 0
    368a:	b6 01       	movw	r22, r12
    368c:	0c c0       	rjmp	.+24     	; 0x36a6 <vfprintf+0x390>
    368e:	8a 2d       	mov	r24, r10
    3690:	86 78       	andi	r24, 0x86	; 134
    3692:	59 f0       	breq	.+22     	; 0x36aa <vfprintf+0x394>
    3694:	a1 fe       	sbrs	r10, 1
    3696:	02 c0       	rjmp	.+4      	; 0x369c <vfprintf+0x386>
    3698:	8b e2       	ldi	r24, 0x2B	; 43
    369a:	01 c0       	rjmp	.+2      	; 0x369e <vfprintf+0x388>
    369c:	80 e2       	ldi	r24, 0x20	; 32
    369e:	a7 fc       	sbrc	r10, 7
    36a0:	8d e2       	ldi	r24, 0x2D	; 45
    36a2:	b6 01       	movw	r22, r12
    36a4:	90 e0       	ldi	r25, 0x00	; 0
    36a6:	0e 94 d5 1e 	call	0x3daa	; 0x3daa <fputc>
    36aa:	89 14       	cp	r8, r9
    36ac:	38 f4       	brcc	.+14     	; 0x36bc <vfprintf+0x3a6>
    36ae:	b6 01       	movw	r22, r12
    36b0:	80 e3       	ldi	r24, 0x30	; 48
    36b2:	90 e0       	ldi	r25, 0x00	; 0
    36b4:	0e 94 d5 1e 	call	0x3daa	; 0x3daa <fputc>
    36b8:	9a 94       	dec	r9
    36ba:	f7 cf       	rjmp	.-18     	; 0x36aa <vfprintf+0x394>
    36bc:	8a 94       	dec	r8
    36be:	f3 01       	movw	r30, r6
    36c0:	e8 0d       	add	r30, r8
    36c2:	f1 1d       	adc	r31, r1
    36c4:	80 81       	ld	r24, Z
    36c6:	b6 01       	movw	r22, r12
    36c8:	90 e0       	ldi	r25, 0x00	; 0
    36ca:	0e 94 d5 1e 	call	0x3daa	; 0x3daa <fputc>
    36ce:	81 10       	cpse	r8, r1
    36d0:	f5 cf       	rjmp	.-22     	; 0x36bc <vfprintf+0x3a6>
    36d2:	22 20       	and	r2, r2
    36d4:	09 f4       	brne	.+2      	; 0x36d8 <vfprintf+0x3c2>
    36d6:	42 ce       	rjmp	.-892    	; 0x335c <vfprintf+0x46>
    36d8:	b6 01       	movw	r22, r12
    36da:	80 e2       	ldi	r24, 0x20	; 32
    36dc:	90 e0       	ldi	r25, 0x00	; 0
    36de:	0e 94 d5 1e 	call	0x3daa	; 0x3daa <fputc>
    36e2:	2a 94       	dec	r2
    36e4:	f6 cf       	rjmp	.-20     	; 0x36d2 <vfprintf+0x3bc>
    36e6:	f6 01       	movw	r30, r12
    36e8:	86 81       	ldd	r24, Z+6	; 0x06
    36ea:	97 81       	ldd	r25, Z+7	; 0x07
    36ec:	02 c0       	rjmp	.+4      	; 0x36f2 <vfprintf+0x3dc>
    36ee:	8f ef       	ldi	r24, 0xFF	; 255
    36f0:	9f ef       	ldi	r25, 0xFF	; 255
    36f2:	2b 96       	adiw	r28, 0x0b	; 11
    36f4:	cd bf       	out	0x3d, r28	; 61
    36f6:	de bf       	out	0x3e, r29	; 62
    36f8:	df 91       	pop	r29
    36fa:	cf 91       	pop	r28
    36fc:	1f 91       	pop	r17
    36fe:	0f 91       	pop	r16
    3700:	ff 90       	pop	r15
    3702:	ef 90       	pop	r14
    3704:	df 90       	pop	r13
    3706:	cf 90       	pop	r12
    3708:	bf 90       	pop	r11
    370a:	af 90       	pop	r10
    370c:	9f 90       	pop	r9
    370e:	8f 90       	pop	r8
    3710:	7f 90       	pop	r7
    3712:	6f 90       	pop	r6
    3714:	5f 90       	pop	r5
    3716:	4f 90       	pop	r4
    3718:	3f 90       	pop	r3
    371a:	2f 90       	pop	r2
    371c:	08 95       	ret

0000371e <putval>:
    371e:	20 fd       	sbrc	r18, 0
    3720:	09 c0       	rjmp	.+18     	; 0x3734 <putval+0x16>
    3722:	fc 01       	movw	r30, r24
    3724:	23 fd       	sbrc	r18, 3
    3726:	05 c0       	rjmp	.+10     	; 0x3732 <putval+0x14>
    3728:	22 ff       	sbrs	r18, 2
    372a:	02 c0       	rjmp	.+4      	; 0x3730 <putval+0x12>
    372c:	73 83       	std	Z+3, r23	; 0x03
    372e:	62 83       	std	Z+2, r22	; 0x02
    3730:	51 83       	std	Z+1, r21	; 0x01
    3732:	40 83       	st	Z, r20
    3734:	08 95       	ret

00003736 <mulacc>:
    3736:	44 fd       	sbrc	r20, 4
    3738:	17 c0       	rjmp	.+46     	; 0x3768 <mulacc+0x32>
    373a:	46 fd       	sbrc	r20, 6
    373c:	17 c0       	rjmp	.+46     	; 0x376c <mulacc+0x36>
    373e:	ab 01       	movw	r20, r22
    3740:	bc 01       	movw	r22, r24
    3742:	da 01       	movw	r26, r20
    3744:	fb 01       	movw	r30, r22
    3746:	aa 0f       	add	r26, r26
    3748:	bb 1f       	adc	r27, r27
    374a:	ee 1f       	adc	r30, r30
    374c:	ff 1f       	adc	r31, r31
    374e:	10 94       	com	r1
    3750:	d1 f7       	brne	.-12     	; 0x3746 <mulacc+0x10>
    3752:	4a 0f       	add	r20, r26
    3754:	5b 1f       	adc	r21, r27
    3756:	6e 1f       	adc	r22, r30
    3758:	7f 1f       	adc	r23, r31
    375a:	cb 01       	movw	r24, r22
    375c:	ba 01       	movw	r22, r20
    375e:	66 0f       	add	r22, r22
    3760:	77 1f       	adc	r23, r23
    3762:	88 1f       	adc	r24, r24
    3764:	99 1f       	adc	r25, r25
    3766:	09 c0       	rjmp	.+18     	; 0x377a <mulacc+0x44>
    3768:	33 e0       	ldi	r19, 0x03	; 3
    376a:	01 c0       	rjmp	.+2      	; 0x376e <mulacc+0x38>
    376c:	34 e0       	ldi	r19, 0x04	; 4
    376e:	66 0f       	add	r22, r22
    3770:	77 1f       	adc	r23, r23
    3772:	88 1f       	adc	r24, r24
    3774:	99 1f       	adc	r25, r25
    3776:	31 50       	subi	r19, 0x01	; 1
    3778:	d1 f7       	brne	.-12     	; 0x376e <mulacc+0x38>
    377a:	62 0f       	add	r22, r18
    377c:	71 1d       	adc	r23, r1
    377e:	81 1d       	adc	r24, r1
    3780:	91 1d       	adc	r25, r1
    3782:	08 95       	ret

00003784 <skip_spaces>:
    3784:	0f 93       	push	r16
    3786:	1f 93       	push	r17
    3788:	cf 93       	push	r28
    378a:	df 93       	push	r29
    378c:	8c 01       	movw	r16, r24
    378e:	c8 01       	movw	r24, r16
    3790:	0e 94 97 1e 	call	0x3d2e	; 0x3d2e <fgetc>
    3794:	ec 01       	movw	r28, r24
    3796:	97 fd       	sbrc	r25, 7
    3798:	08 c0       	rjmp	.+16     	; 0x37aa <skip_spaces+0x26>
    379a:	0e 94 6d 1e 	call	0x3cda	; 0x3cda <isspace>
    379e:	89 2b       	or	r24, r25
    37a0:	b1 f7       	brne	.-20     	; 0x378e <skip_spaces+0xa>
    37a2:	b8 01       	movw	r22, r16
    37a4:	ce 01       	movw	r24, r28
    37a6:	0e 94 11 1f 	call	0x3e22	; 0x3e22 <ungetc>
    37aa:	ce 01       	movw	r24, r28
    37ac:	df 91       	pop	r29
    37ae:	cf 91       	pop	r28
    37b0:	1f 91       	pop	r17
    37b2:	0f 91       	pop	r16
    37b4:	08 95       	ret

000037b6 <conv_int>:
    37b6:	8f 92       	push	r8
    37b8:	9f 92       	push	r9
    37ba:	af 92       	push	r10
    37bc:	bf 92       	push	r11
    37be:	ef 92       	push	r14
    37c0:	ff 92       	push	r15
    37c2:	0f 93       	push	r16
    37c4:	1f 93       	push	r17
    37c6:	cf 93       	push	r28
    37c8:	df 93       	push	r29
    37ca:	8c 01       	movw	r16, r24
    37cc:	d6 2f       	mov	r29, r22
    37ce:	7a 01       	movw	r14, r20
    37d0:	b2 2e       	mov	r11, r18
    37d2:	0e 94 97 1e 	call	0x3d2e	; 0x3d2e <fgetc>
    37d6:	9c 01       	movw	r18, r24
    37d8:	33 27       	eor	r19, r19
    37da:	2b 32       	cpi	r18, 0x2B	; 43
    37dc:	31 05       	cpc	r19, r1
    37de:	31 f0       	breq	.+12     	; 0x37ec <conv_int+0x36>
    37e0:	2d 32       	cpi	r18, 0x2D	; 45
    37e2:	31 05       	cpc	r19, r1
    37e4:	61 f4       	brne	.+24     	; 0x37fe <conv_int+0x48>
    37e6:	8b 2d       	mov	r24, r11
    37e8:	80 68       	ori	r24, 0x80	; 128
    37ea:	b8 2e       	mov	r11, r24
    37ec:	d1 50       	subi	r29, 0x01	; 1
    37ee:	11 f4       	brne	.+4      	; 0x37f4 <conv_int+0x3e>
    37f0:	80 e0       	ldi	r24, 0x00	; 0
    37f2:	68 c0       	rjmp	.+208    	; 0x38c4 <conv_int+0x10e>
    37f4:	c8 01       	movw	r24, r16
    37f6:	0e 94 97 1e 	call	0x3d2e	; 0x3d2e <fgetc>
    37fa:	97 fd       	sbrc	r25, 7
    37fc:	f9 cf       	rjmp	.-14     	; 0x37f0 <conv_int+0x3a>
    37fe:	cb 2d       	mov	r28, r11
    3800:	cd 7f       	andi	r28, 0xFD	; 253
    3802:	2b 2d       	mov	r18, r11
    3804:	20 73       	andi	r18, 0x30	; 48
    3806:	09 f5       	brne	.+66     	; 0x384a <conv_int+0x94>
    3808:	80 33       	cpi	r24, 0x30	; 48
    380a:	f9 f4       	brne	.+62     	; 0x384a <conv_int+0x94>
    380c:	aa 24       	eor	r10, r10
    380e:	aa 94       	dec	r10
    3810:	ad 0e       	add	r10, r29
    3812:	09 f4       	brne	.+2      	; 0x3816 <conv_int+0x60>
    3814:	43 c0       	rjmp	.+134    	; 0x389c <conv_int+0xe6>
    3816:	c8 01       	movw	r24, r16
    3818:	0e 94 97 1e 	call	0x3d2e	; 0x3d2e <fgetc>
    381c:	97 fd       	sbrc	r25, 7
    381e:	3e c0       	rjmp	.+124    	; 0x389c <conv_int+0xe6>
    3820:	9c 01       	movw	r18, r24
    3822:	2f 7d       	andi	r18, 0xDF	; 223
    3824:	33 27       	eor	r19, r19
    3826:	28 35       	cpi	r18, 0x58	; 88
    3828:	31 05       	cpc	r19, r1
    382a:	49 f4       	brne	.+18     	; 0x383e <conv_int+0x88>
    382c:	c2 64       	ori	r28, 0x42	; 66
    382e:	d2 50       	subi	r29, 0x02	; 2
    3830:	a9 f1       	breq	.+106    	; 0x389c <conv_int+0xe6>
    3832:	c8 01       	movw	r24, r16
    3834:	0e 94 97 1e 	call	0x3d2e	; 0x3d2e <fgetc>
    3838:	97 ff       	sbrs	r25, 7
    383a:	07 c0       	rjmp	.+14     	; 0x384a <conv_int+0x94>
    383c:	2f c0       	rjmp	.+94     	; 0x389c <conv_int+0xe6>
    383e:	b6 fe       	sbrs	r11, 6
    3840:	02 c0       	rjmp	.+4      	; 0x3846 <conv_int+0x90>
    3842:	c2 60       	ori	r28, 0x02	; 2
    3844:	01 c0       	rjmp	.+2      	; 0x3848 <conv_int+0x92>
    3846:	c2 61       	ori	r28, 0x12	; 18
    3848:	da 2d       	mov	r29, r10
    384a:	81 2c       	mov	r8, r1
    384c:	91 2c       	mov	r9, r1
    384e:	54 01       	movw	r10, r8
    3850:	20 ed       	ldi	r18, 0xD0	; 208
    3852:	28 0f       	add	r18, r24
    3854:	28 30       	cpi	r18, 0x08	; 8
    3856:	80 f0       	brcs	.+32     	; 0x3878 <conv_int+0xc2>
    3858:	c4 ff       	sbrs	r28, 4
    385a:	04 c0       	rjmp	.+8      	; 0x3864 <conv_int+0xae>
    385c:	b8 01       	movw	r22, r16
    385e:	0e 94 11 1f 	call	0x3e22	; 0x3e22 <ungetc>
    3862:	19 c0       	rjmp	.+50     	; 0x3896 <conv_int+0xe0>
    3864:	2a 30       	cpi	r18, 0x0A	; 10
    3866:	40 f0       	brcs	.+16     	; 0x3878 <conv_int+0xc2>
    3868:	c6 ff       	sbrs	r28, 6
    386a:	f8 cf       	rjmp	.-16     	; 0x385c <conv_int+0xa6>
    386c:	2f 7d       	andi	r18, 0xDF	; 223
    386e:	3f ee       	ldi	r19, 0xEF	; 239
    3870:	32 0f       	add	r19, r18
    3872:	36 30       	cpi	r19, 0x06	; 6
    3874:	98 f7       	brcc	.-26     	; 0x385c <conv_int+0xa6>
    3876:	27 50       	subi	r18, 0x07	; 7
    3878:	4c 2f       	mov	r20, r28
    387a:	c5 01       	movw	r24, r10
    387c:	b4 01       	movw	r22, r8
    387e:	0e 94 9b 1b 	call	0x3736	; 0x3736 <mulacc>
    3882:	4b 01       	movw	r8, r22
    3884:	5c 01       	movw	r10, r24
    3886:	c2 60       	ori	r28, 0x02	; 2
    3888:	d1 50       	subi	r29, 0x01	; 1
    388a:	59 f0       	breq	.+22     	; 0x38a2 <conv_int+0xec>
    388c:	c8 01       	movw	r24, r16
    388e:	0e 94 97 1e 	call	0x3d2e	; 0x3d2e <fgetc>
    3892:	97 ff       	sbrs	r25, 7
    3894:	dd cf       	rjmp	.-70     	; 0x3850 <conv_int+0x9a>
    3896:	c1 fd       	sbrc	r28, 1
    3898:	04 c0       	rjmp	.+8      	; 0x38a2 <conv_int+0xec>
    389a:	aa cf       	rjmp	.-172    	; 0x37f0 <conv_int+0x3a>
    389c:	81 2c       	mov	r8, r1
    389e:	91 2c       	mov	r9, r1
    38a0:	54 01       	movw	r10, r8
    38a2:	c7 ff       	sbrs	r28, 7
    38a4:	08 c0       	rjmp	.+16     	; 0x38b6 <conv_int+0x100>
    38a6:	b0 94       	com	r11
    38a8:	a0 94       	com	r10
    38aa:	90 94       	com	r9
    38ac:	80 94       	com	r8
    38ae:	81 1c       	adc	r8, r1
    38b0:	91 1c       	adc	r9, r1
    38b2:	a1 1c       	adc	r10, r1
    38b4:	b1 1c       	adc	r11, r1
    38b6:	2c 2f       	mov	r18, r28
    38b8:	b5 01       	movw	r22, r10
    38ba:	a4 01       	movw	r20, r8
    38bc:	c7 01       	movw	r24, r14
    38be:	0e 94 8f 1b 	call	0x371e	; 0x371e <putval>
    38c2:	81 e0       	ldi	r24, 0x01	; 1
    38c4:	df 91       	pop	r29
    38c6:	cf 91       	pop	r28
    38c8:	1f 91       	pop	r17
    38ca:	0f 91       	pop	r16
    38cc:	ff 90       	pop	r15
    38ce:	ef 90       	pop	r14
    38d0:	bf 90       	pop	r11
    38d2:	af 90       	pop	r10
    38d4:	9f 90       	pop	r9
    38d6:	8f 90       	pop	r8
    38d8:	08 95       	ret

000038da <conv_brk>:
    38da:	5f 92       	push	r5
    38dc:	6f 92       	push	r6
    38de:	7f 92       	push	r7
    38e0:	8f 92       	push	r8
    38e2:	9f 92       	push	r9
    38e4:	af 92       	push	r10
    38e6:	bf 92       	push	r11
    38e8:	cf 92       	push	r12
    38ea:	df 92       	push	r13
    38ec:	ef 92       	push	r14
    38ee:	ff 92       	push	r15
    38f0:	0f 93       	push	r16
    38f2:	1f 93       	push	r17
    38f4:	cf 93       	push	r28
    38f6:	df 93       	push	r29
    38f8:	cd b7       	in	r28, 0x3d	; 61
    38fa:	de b7       	in	r29, 0x3e	; 62
    38fc:	a0 97       	sbiw	r28, 0x20	; 32
    38fe:	cd bf       	out	0x3d, r28	; 61
    3900:	de bf       	out	0x3e, r29	; 62
    3902:	5c 01       	movw	r10, r24
    3904:	96 2e       	mov	r9, r22
    3906:	7a 01       	movw	r14, r20
    3908:	f9 01       	movw	r30, r18
    390a:	8e 01       	movw	r16, r28
    390c:	0f 5f       	subi	r16, 0xFF	; 255
    390e:	1f 4f       	sbci	r17, 0xFF	; 255
    3910:	68 01       	movw	r12, r16
    3912:	80 e2       	ldi	r24, 0x20	; 32
    3914:	d8 01       	movw	r26, r16
    3916:	1d 92       	st	X+, r1
    3918:	8a 95       	dec	r24
    391a:	e9 f7       	brne	.-6      	; 0x3916 <conv_brk+0x3c>
    391c:	d5 01       	movw	r26, r10
    391e:	13 96       	adiw	r26, 0x03	; 3
    3920:	8c 90       	ld	r8, X
    3922:	80 e0       	ldi	r24, 0x00	; 0
    3924:	90 e0       	ldi	r25, 0x00	; 0
    3926:	61 2c       	mov	r6, r1
    3928:	71 2c       	mov	r7, r1
    392a:	30 e0       	ldi	r19, 0x00	; 0
    392c:	61 e0       	ldi	r22, 0x01	; 1
    392e:	70 e0       	ldi	r23, 0x00	; 0
    3930:	83 fc       	sbrc	r8, 3
    3932:	25 91       	lpm	r18, Z+
    3934:	83 fe       	sbrs	r8, 3
    3936:	21 91       	ld	r18, Z+
    3938:	8f 01       	movw	r16, r30
    393a:	52 2e       	mov	r5, r18
    393c:	21 11       	cpse	r18, r1
    393e:	03 c0       	rjmp	.+6      	; 0x3946 <conv_brk+0x6c>
    3940:	80 e0       	ldi	r24, 0x00	; 0
    3942:	90 e0       	ldi	r25, 0x00	; 0
    3944:	92 c0       	rjmp	.+292    	; 0x3a6a <conv_brk+0x190>
    3946:	2e 35       	cpi	r18, 0x5E	; 94
    3948:	11 f4       	brne	.+4      	; 0x394e <conv_brk+0x74>
    394a:	00 97       	sbiw	r24, 0x00	; 0
    394c:	51 f1       	breq	.+84     	; 0x39a2 <conv_brk+0xc8>
    394e:	43 2f       	mov	r20, r19
    3950:	50 e0       	ldi	r21, 0x00	; 0
    3952:	48 17       	cp	r20, r24
    3954:	59 07       	cpc	r21, r25
    3956:	3c f4       	brge	.+14     	; 0x3966 <conv_brk+0x8c>
    3958:	2d 35       	cpi	r18, 0x5D	; 93
    395a:	59 f1       	breq	.+86     	; 0x39b2 <conv_brk+0xd8>
    395c:	2d 32       	cpi	r18, 0x2D	; 45
    395e:	19 f4       	brne	.+6      	; 0x3966 <conv_brk+0x8c>
    3960:	77 20       	and	r7, r7
    3962:	09 f1       	breq	.+66     	; 0x39a6 <conv_brk+0xcc>
    3964:	03 c0       	rjmp	.+6      	; 0x396c <conv_brk+0x92>
    3966:	77 20       	and	r7, r7
    3968:	09 f4       	brne	.+2      	; 0x396c <conv_brk+0x92>
    396a:	6a c0       	rjmp	.+212    	; 0x3a40 <conv_brk+0x166>
    396c:	45 2d       	mov	r20, r5
    396e:	46 95       	lsr	r20
    3970:	46 95       	lsr	r20
    3972:	46 95       	lsr	r20
    3974:	d6 01       	movw	r26, r12
    3976:	a4 0f       	add	r26, r20
    3978:	b1 1d       	adc	r27, r1
    397a:	45 2d       	mov	r20, r5
    397c:	47 70       	andi	r20, 0x07	; 7
    397e:	8b 01       	movw	r16, r22
    3980:	02 c0       	rjmp	.+4      	; 0x3986 <conv_brk+0xac>
    3982:	00 0f       	add	r16, r16
    3984:	11 1f       	adc	r17, r17
    3986:	4a 95       	dec	r20
    3988:	e2 f7       	brpl	.-8      	; 0x3982 <conv_brk+0xa8>
    398a:	a8 01       	movw	r20, r16
    398c:	5c 91       	ld	r21, X
    398e:	45 2b       	or	r20, r21
    3990:	4c 93       	st	X, r20
    3992:	65 14       	cp	r6, r5
    3994:	59 f0       	breq	.+22     	; 0x39ac <conv_brk+0xd2>
    3996:	56 14       	cp	r5, r6
    3998:	10 f4       	brcc	.+4      	; 0x399e <conv_brk+0xc4>
    399a:	53 94       	inc	r5
    399c:	e7 cf       	rjmp	.-50     	; 0x396c <conv_brk+0x92>
    399e:	5a 94       	dec	r5
    39a0:	e5 cf       	rjmp	.-54     	; 0x396c <conv_brk+0x92>
    39a2:	31 e0       	ldi	r19, 0x01	; 1
    39a4:	04 c0       	rjmp	.+8      	; 0x39ae <conv_brk+0xd4>
    39a6:	77 24       	eor	r7, r7
    39a8:	73 94       	inc	r7
    39aa:	01 c0       	rjmp	.+2      	; 0x39ae <conv_brk+0xd4>
    39ac:	71 2c       	mov	r7, r1
    39ae:	01 96       	adiw	r24, 0x01	; 1
    39b0:	bf cf       	rjmp	.-130    	; 0x3930 <conv_brk+0x56>
    39b2:	77 20       	and	r7, r7
    39b4:	19 f0       	breq	.+6      	; 0x39bc <conv_brk+0xe2>
    39b6:	8e 81       	ldd	r24, Y+6	; 0x06
    39b8:	80 62       	ori	r24, 0x20	; 32
    39ba:	8e 83       	std	Y+6, r24	; 0x06
    39bc:	31 11       	cpse	r19, r1
    39be:	03 c0       	rjmp	.+6      	; 0x39c6 <conv_brk+0xec>
    39c0:	88 24       	eor	r8, r8
    39c2:	83 94       	inc	r8
    39c4:	17 c0       	rjmp	.+46     	; 0x39f4 <conv_brk+0x11a>
    39c6:	f6 01       	movw	r30, r12
    39c8:	9e 01       	movw	r18, r28
    39ca:	2f 5d       	subi	r18, 0xDF	; 223
    39cc:	3f 4f       	sbci	r19, 0xFF	; 255
    39ce:	80 81       	ld	r24, Z
    39d0:	80 95       	com	r24
    39d2:	81 93       	st	Z+, r24
    39d4:	2e 17       	cp	r18, r30
    39d6:	3f 07       	cpc	r19, r31
    39d8:	d1 f7       	brne	.-12     	; 0x39ce <conv_brk+0xf4>
    39da:	f2 cf       	rjmp	.-28     	; 0x39c0 <conv_brk+0xe6>
    39dc:	e1 14       	cp	r14, r1
    39de:	f1 04       	cpc	r15, r1
    39e0:	29 f0       	breq	.+10     	; 0x39ec <conv_brk+0x112>
    39e2:	d7 01       	movw	r26, r14
    39e4:	8c 93       	st	X, r24
    39e6:	f7 01       	movw	r30, r14
    39e8:	31 96       	adiw	r30, 0x01	; 1
    39ea:	7f 01       	movw	r14, r30
    39ec:	9a 94       	dec	r9
    39ee:	81 2c       	mov	r8, r1
    39f0:	99 20       	and	r9, r9
    39f2:	f9 f0       	breq	.+62     	; 0x3a32 <conv_brk+0x158>
    39f4:	c5 01       	movw	r24, r10
    39f6:	0e 94 97 1e 	call	0x3d2e	; 0x3d2e <fgetc>
    39fa:	97 fd       	sbrc	r25, 7
    39fc:	18 c0       	rjmp	.+48     	; 0x3a2e <conv_brk+0x154>
    39fe:	fc 01       	movw	r30, r24
    3a00:	ff 27       	eor	r31, r31
    3a02:	23 e0       	ldi	r18, 0x03	; 3
    3a04:	f5 95       	asr	r31
    3a06:	e7 95       	ror	r30
    3a08:	2a 95       	dec	r18
    3a0a:	e1 f7       	brne	.-8      	; 0x3a04 <conv_brk+0x12a>
    3a0c:	ec 0d       	add	r30, r12
    3a0e:	fd 1d       	adc	r31, r13
    3a10:	20 81       	ld	r18, Z
    3a12:	30 e0       	ldi	r19, 0x00	; 0
    3a14:	ac 01       	movw	r20, r24
    3a16:	47 70       	andi	r20, 0x07	; 7
    3a18:	55 27       	eor	r21, r21
    3a1a:	02 c0       	rjmp	.+4      	; 0x3a20 <conv_brk+0x146>
    3a1c:	35 95       	asr	r19
    3a1e:	27 95       	ror	r18
    3a20:	4a 95       	dec	r20
    3a22:	e2 f7       	brpl	.-8      	; 0x3a1c <conv_brk+0x142>
    3a24:	20 fd       	sbrc	r18, 0
    3a26:	da cf       	rjmp	.-76     	; 0x39dc <conv_brk+0x102>
    3a28:	b5 01       	movw	r22, r10
    3a2a:	0e 94 11 1f 	call	0x3e22	; 0x3e22 <ungetc>
    3a2e:	81 10       	cpse	r8, r1
    3a30:	87 cf       	rjmp	.-242    	; 0x3940 <conv_brk+0x66>
    3a32:	e1 14       	cp	r14, r1
    3a34:	f1 04       	cpc	r15, r1
    3a36:	11 f0       	breq	.+4      	; 0x3a3c <conv_brk+0x162>
    3a38:	d7 01       	movw	r26, r14
    3a3a:	1c 92       	st	X, r1
    3a3c:	c8 01       	movw	r24, r16
    3a3e:	15 c0       	rjmp	.+42     	; 0x3a6a <conv_brk+0x190>
    3a40:	42 2f       	mov	r20, r18
    3a42:	46 95       	lsr	r20
    3a44:	46 95       	lsr	r20
    3a46:	46 95       	lsr	r20
    3a48:	d6 01       	movw	r26, r12
    3a4a:	a4 0f       	add	r26, r20
    3a4c:	b1 1d       	adc	r27, r1
    3a4e:	42 2f       	mov	r20, r18
    3a50:	47 70       	andi	r20, 0x07	; 7
    3a52:	8b 01       	movw	r16, r22
    3a54:	02 c0       	rjmp	.+4      	; 0x3a5a <conv_brk+0x180>
    3a56:	00 0f       	add	r16, r16
    3a58:	11 1f       	adc	r17, r17
    3a5a:	4a 95       	dec	r20
    3a5c:	e2 f7       	brpl	.-8      	; 0x3a56 <conv_brk+0x17c>
    3a5e:	a8 01       	movw	r20, r16
    3a60:	5c 91       	ld	r21, X
    3a62:	45 2b       	or	r20, r21
    3a64:	4c 93       	st	X, r20
    3a66:	62 2e       	mov	r6, r18
    3a68:	a2 cf       	rjmp	.-188    	; 0x39ae <conv_brk+0xd4>
    3a6a:	a0 96       	adiw	r28, 0x20	; 32
    3a6c:	cd bf       	out	0x3d, r28	; 61
    3a6e:	de bf       	out	0x3e, r29	; 62
    3a70:	df 91       	pop	r29
    3a72:	cf 91       	pop	r28
    3a74:	1f 91       	pop	r17
    3a76:	0f 91       	pop	r16
    3a78:	ff 90       	pop	r15
    3a7a:	ef 90       	pop	r14
    3a7c:	df 90       	pop	r13
    3a7e:	cf 90       	pop	r12
    3a80:	bf 90       	pop	r11
    3a82:	af 90       	pop	r10
    3a84:	9f 90       	pop	r9
    3a86:	8f 90       	pop	r8
    3a88:	7f 90       	pop	r7
    3a8a:	6f 90       	pop	r6
    3a8c:	5f 90       	pop	r5
    3a8e:	08 95       	ret

00003a90 <vfscanf>:
    3a90:	5f 92       	push	r5
    3a92:	6f 92       	push	r6
    3a94:	7f 92       	push	r7
    3a96:	8f 92       	push	r8
    3a98:	9f 92       	push	r9
    3a9a:	af 92       	push	r10
    3a9c:	bf 92       	push	r11
    3a9e:	cf 92       	push	r12
    3aa0:	df 92       	push	r13
    3aa2:	ef 92       	push	r14
    3aa4:	ff 92       	push	r15
    3aa6:	0f 93       	push	r16
    3aa8:	1f 93       	push	r17
    3aaa:	cf 93       	push	r28
    3aac:	df 93       	push	r29
    3aae:	6c 01       	movw	r12, r24
    3ab0:	eb 01       	movw	r28, r22
    3ab2:	5a 01       	movw	r10, r20
    3ab4:	fc 01       	movw	r30, r24
    3ab6:	16 82       	std	Z+6, r1	; 0x06
    3ab8:	17 82       	std	Z+7, r1	; 0x07
    3aba:	51 2c       	mov	r5, r1
    3abc:	f6 01       	movw	r30, r12
    3abe:	e3 80       	ldd	r14, Z+3	; 0x03
    3ac0:	fe 01       	movw	r30, r28
    3ac2:	e3 fc       	sbrc	r14, 3
    3ac4:	85 91       	lpm	r24, Z+
    3ac6:	e3 fe       	sbrs	r14, 3
    3ac8:	81 91       	ld	r24, Z+
    3aca:	18 2f       	mov	r17, r24
    3acc:	ef 01       	movw	r28, r30
    3ace:	88 23       	and	r24, r24
    3ad0:	09 f4       	brne	.+2      	; 0x3ad4 <vfscanf+0x44>
    3ad2:	ee c0       	rjmp	.+476    	; 0x3cb0 <vfscanf+0x220>
    3ad4:	90 e0       	ldi	r25, 0x00	; 0
    3ad6:	0e 94 6d 1e 	call	0x3cda	; 0x3cda <isspace>
    3ada:	89 2b       	or	r24, r25
    3adc:	21 f0       	breq	.+8      	; 0x3ae6 <vfscanf+0x56>
    3ade:	c6 01       	movw	r24, r12
    3ae0:	0e 94 c2 1b 	call	0x3784	; 0x3784 <skip_spaces>
    3ae4:	eb cf       	rjmp	.-42     	; 0x3abc <vfscanf+0x2c>
    3ae6:	15 32       	cpi	r17, 0x25	; 37
    3ae8:	41 f4       	brne	.+16     	; 0x3afa <vfscanf+0x6a>
    3aea:	fe 01       	movw	r30, r28
    3aec:	e3 fc       	sbrc	r14, 3
    3aee:	15 91       	lpm	r17, Z+
    3af0:	e3 fe       	sbrs	r14, 3
    3af2:	11 91       	ld	r17, Z+
    3af4:	ef 01       	movw	r28, r30
    3af6:	15 32       	cpi	r17, 0x25	; 37
    3af8:	81 f4       	brne	.+32     	; 0x3b1a <vfscanf+0x8a>
    3afa:	c6 01       	movw	r24, r12
    3afc:	0e 94 97 1e 	call	0x3d2e	; 0x3d2e <fgetc>
    3b00:	97 fd       	sbrc	r25, 7
    3b02:	d4 c0       	rjmp	.+424    	; 0x3cac <vfscanf+0x21c>
    3b04:	41 2f       	mov	r20, r17
    3b06:	50 e0       	ldi	r21, 0x00	; 0
    3b08:	9c 01       	movw	r18, r24
    3b0a:	33 27       	eor	r19, r19
    3b0c:	24 17       	cp	r18, r20
    3b0e:	35 07       	cpc	r19, r21
    3b10:	a9 f2       	breq	.-86     	; 0x3abc <vfscanf+0x2c>
    3b12:	b6 01       	movw	r22, r12
    3b14:	0e 94 11 1f 	call	0x3e22	; 0x3e22 <ungetc>
    3b18:	cb c0       	rjmp	.+406    	; 0x3cb0 <vfscanf+0x220>
    3b1a:	1a 32       	cpi	r17, 0x2A	; 42
    3b1c:	39 f4       	brne	.+14     	; 0x3b2c <vfscanf+0x9c>
    3b1e:	e3 fc       	sbrc	r14, 3
    3b20:	15 91       	lpm	r17, Z+
    3b22:	e3 fe       	sbrs	r14, 3
    3b24:	11 91       	ld	r17, Z+
    3b26:	ef 01       	movw	r28, r30
    3b28:	01 e0       	ldi	r16, 0x01	; 1
    3b2a:	01 c0       	rjmp	.+2      	; 0x3b2e <vfscanf+0x9e>
    3b2c:	00 e0       	ldi	r16, 0x00	; 0
    3b2e:	f1 2c       	mov	r15, r1
    3b30:	20 ed       	ldi	r18, 0xD0	; 208
    3b32:	21 0f       	add	r18, r17
    3b34:	2a 30       	cpi	r18, 0x0A	; 10
    3b36:	80 f4       	brcc	.+32     	; 0x3b58 <vfscanf+0xc8>
    3b38:	02 60       	ori	r16, 0x02	; 2
    3b3a:	6f 2d       	mov	r22, r15
    3b3c:	70 e0       	ldi	r23, 0x00	; 0
    3b3e:	80 e0       	ldi	r24, 0x00	; 0
    3b40:	90 e0       	ldi	r25, 0x00	; 0
    3b42:	40 e2       	ldi	r20, 0x20	; 32
    3b44:	0e 94 9b 1b 	call	0x3736	; 0x3736 <mulacc>
    3b48:	f6 2e       	mov	r15, r22
    3b4a:	fe 01       	movw	r30, r28
    3b4c:	e3 fc       	sbrc	r14, 3
    3b4e:	15 91       	lpm	r17, Z+
    3b50:	e3 fe       	sbrs	r14, 3
    3b52:	11 91       	ld	r17, Z+
    3b54:	ef 01       	movw	r28, r30
    3b56:	ec cf       	rjmp	.-40     	; 0x3b30 <vfscanf+0xa0>
    3b58:	01 ff       	sbrs	r16, 1
    3b5a:	03 c0       	rjmp	.+6      	; 0x3b62 <vfscanf+0xd2>
    3b5c:	f1 10       	cpse	r15, r1
    3b5e:	03 c0       	rjmp	.+6      	; 0x3b66 <vfscanf+0xd6>
    3b60:	a7 c0       	rjmp	.+334    	; 0x3cb0 <vfscanf+0x220>
    3b62:	ff 24       	eor	r15, r15
    3b64:	fa 94       	dec	r15
    3b66:	18 36       	cpi	r17, 0x68	; 104
    3b68:	19 f0       	breq	.+6      	; 0x3b70 <vfscanf+0xe0>
    3b6a:	1c 36       	cpi	r17, 0x6C	; 108
    3b6c:	51 f0       	breq	.+20     	; 0x3b82 <vfscanf+0xf2>
    3b6e:	10 c0       	rjmp	.+32     	; 0x3b90 <vfscanf+0x100>
    3b70:	fe 01       	movw	r30, r28
    3b72:	e3 fc       	sbrc	r14, 3
    3b74:	15 91       	lpm	r17, Z+
    3b76:	e3 fe       	sbrs	r14, 3
    3b78:	11 91       	ld	r17, Z+
    3b7a:	ef 01       	movw	r28, r30
    3b7c:	18 36       	cpi	r17, 0x68	; 104
    3b7e:	41 f4       	brne	.+16     	; 0x3b90 <vfscanf+0x100>
    3b80:	08 60       	ori	r16, 0x08	; 8
    3b82:	04 60       	ori	r16, 0x04	; 4
    3b84:	fe 01       	movw	r30, r28
    3b86:	e3 fc       	sbrc	r14, 3
    3b88:	15 91       	lpm	r17, Z+
    3b8a:	e3 fe       	sbrs	r14, 3
    3b8c:	11 91       	ld	r17, Z+
    3b8e:	ef 01       	movw	r28, r30
    3b90:	11 23       	and	r17, r17
    3b92:	09 f4       	brne	.+2      	; 0x3b96 <vfscanf+0x106>
    3b94:	8d c0       	rjmp	.+282    	; 0x3cb0 <vfscanf+0x220>
    3b96:	61 2f       	mov	r22, r17
    3b98:	70 e0       	ldi	r23, 0x00	; 0
    3b9a:	84 ef       	ldi	r24, 0xF4	; 244
    3b9c:	90 e0       	ldi	r25, 0x00	; 0
    3b9e:	0e 94 76 1e 	call	0x3cec	; 0x3cec <strchr_P>
    3ba2:	89 2b       	or	r24, r25
    3ba4:	09 f4       	brne	.+2      	; 0x3ba8 <vfscanf+0x118>
    3ba6:	84 c0       	rjmp	.+264    	; 0x3cb0 <vfscanf+0x220>
    3ba8:	00 fd       	sbrc	r16, 0
    3baa:	07 c0       	rjmp	.+14     	; 0x3bba <vfscanf+0x12a>
    3bac:	f5 01       	movw	r30, r10
    3bae:	80 80       	ld	r8, Z
    3bb0:	91 80       	ldd	r9, Z+1	; 0x01
    3bb2:	c5 01       	movw	r24, r10
    3bb4:	02 96       	adiw	r24, 0x02	; 2
    3bb6:	5c 01       	movw	r10, r24
    3bb8:	02 c0       	rjmp	.+4      	; 0x3bbe <vfscanf+0x12e>
    3bba:	81 2c       	mov	r8, r1
    3bbc:	91 2c       	mov	r9, r1
    3bbe:	1e 36       	cpi	r17, 0x6E	; 110
    3bc0:	51 f4       	brne	.+20     	; 0x3bd6 <vfscanf+0x146>
    3bc2:	f6 01       	movw	r30, r12
    3bc4:	46 81       	ldd	r20, Z+6	; 0x06
    3bc6:	57 81       	ldd	r21, Z+7	; 0x07
    3bc8:	60 e0       	ldi	r22, 0x00	; 0
    3bca:	70 e0       	ldi	r23, 0x00	; 0
    3bcc:	20 2f       	mov	r18, r16
    3bce:	c4 01       	movw	r24, r8
    3bd0:	0e 94 8f 1b 	call	0x371e	; 0x371e <putval>
    3bd4:	73 cf       	rjmp	.-282    	; 0x3abc <vfscanf+0x2c>
    3bd6:	13 36       	cpi	r17, 0x63	; 99
    3bd8:	a9 f4       	brne	.+42     	; 0x3c04 <vfscanf+0x174>
    3bda:	01 fd       	sbrc	r16, 1
    3bdc:	02 c0       	rjmp	.+4      	; 0x3be2 <vfscanf+0x152>
    3bde:	ff 24       	eor	r15, r15
    3be0:	f3 94       	inc	r15
    3be2:	c6 01       	movw	r24, r12
    3be4:	0e 94 97 1e 	call	0x3d2e	; 0x3d2e <fgetc>
    3be8:	97 fd       	sbrc	r25, 7
    3bea:	60 c0       	rjmp	.+192    	; 0x3cac <vfscanf+0x21c>
    3bec:	81 14       	cp	r8, r1
    3bee:	91 04       	cpc	r9, r1
    3bf0:	29 f0       	breq	.+10     	; 0x3bfc <vfscanf+0x16c>
    3bf2:	f4 01       	movw	r30, r8
    3bf4:	80 83       	st	Z, r24
    3bf6:	c4 01       	movw	r24, r8
    3bf8:	01 96       	adiw	r24, 0x01	; 1
    3bfa:	4c 01       	movw	r8, r24
    3bfc:	fa 94       	dec	r15
    3bfe:	f1 10       	cpse	r15, r1
    3c00:	f0 cf       	rjmp	.-32     	; 0x3be2 <vfscanf+0x152>
    3c02:	50 c0       	rjmp	.+160    	; 0x3ca4 <vfscanf+0x214>
    3c04:	1b 35       	cpi	r17, 0x5B	; 91
    3c06:	59 f4       	brne	.+22     	; 0x3c1e <vfscanf+0x18e>
    3c08:	9e 01       	movw	r18, r28
    3c0a:	a4 01       	movw	r20, r8
    3c0c:	6f 2d       	mov	r22, r15
    3c0e:	c6 01       	movw	r24, r12
    3c10:	0e 94 6d 1c 	call	0x38da	; 0x38da <conv_brk>
    3c14:	ec 01       	movw	r28, r24
    3c16:	89 2b       	or	r24, r25
    3c18:	09 f0       	breq	.+2      	; 0x3c1c <vfscanf+0x18c>
    3c1a:	44 c0       	rjmp	.+136    	; 0x3ca4 <vfscanf+0x214>
    3c1c:	3e c0       	rjmp	.+124    	; 0x3c9a <vfscanf+0x20a>
    3c1e:	c6 01       	movw	r24, r12
    3c20:	0e 94 c2 1b 	call	0x3784	; 0x3784 <skip_spaces>
    3c24:	97 fd       	sbrc	r25, 7
    3c26:	42 c0       	rjmp	.+132    	; 0x3cac <vfscanf+0x21c>
    3c28:	1f 36       	cpi	r17, 0x6F	; 111
    3c2a:	61 f1       	breq	.+88     	; 0x3c84 <vfscanf+0x1f4>
    3c2c:	28 f4       	brcc	.+10     	; 0x3c38 <vfscanf+0x1a8>
    3c2e:	14 36       	cpi	r17, 0x64	; 100
    3c30:	39 f1       	breq	.+78     	; 0x3c80 <vfscanf+0x1f0>
    3c32:	19 36       	cpi	r17, 0x69	; 105
    3c34:	51 f1       	breq	.+84     	; 0x3c8a <vfscanf+0x1fa>
    3c36:	28 c0       	rjmp	.+80     	; 0x3c88 <vfscanf+0x1f8>
    3c38:	13 37       	cpi	r17, 0x73	; 115
    3c3a:	71 f0       	breq	.+28     	; 0x3c58 <vfscanf+0x1c8>
    3c3c:	15 37       	cpi	r17, 0x75	; 117
    3c3e:	01 f1       	breq	.+64     	; 0x3c80 <vfscanf+0x1f0>
    3c40:	23 c0       	rjmp	.+70     	; 0x3c88 <vfscanf+0x1f8>
    3c42:	81 14       	cp	r8, r1
    3c44:	91 04       	cpc	r9, r1
    3c46:	29 f0       	breq	.+10     	; 0x3c52 <vfscanf+0x1c2>
    3c48:	f4 01       	movw	r30, r8
    3c4a:	60 82       	st	Z, r6
    3c4c:	c4 01       	movw	r24, r8
    3c4e:	01 96       	adiw	r24, 0x01	; 1
    3c50:	4c 01       	movw	r8, r24
    3c52:	fa 94       	dec	r15
    3c54:	ff 20       	and	r15, r15
    3c56:	71 f0       	breq	.+28     	; 0x3c74 <vfscanf+0x1e4>
    3c58:	c6 01       	movw	r24, r12
    3c5a:	0e 94 97 1e 	call	0x3d2e	; 0x3d2e <fgetc>
    3c5e:	3c 01       	movw	r6, r24
    3c60:	97 fd       	sbrc	r25, 7
    3c62:	08 c0       	rjmp	.+16     	; 0x3c74 <vfscanf+0x1e4>
    3c64:	0e 94 6d 1e 	call	0x3cda	; 0x3cda <isspace>
    3c68:	89 2b       	or	r24, r25
    3c6a:	59 f3       	breq	.-42     	; 0x3c42 <vfscanf+0x1b2>
    3c6c:	b6 01       	movw	r22, r12
    3c6e:	c3 01       	movw	r24, r6
    3c70:	0e 94 11 1f 	call	0x3e22	; 0x3e22 <ungetc>
    3c74:	81 14       	cp	r8, r1
    3c76:	91 04       	cpc	r9, r1
    3c78:	a9 f0       	breq	.+42     	; 0x3ca4 <vfscanf+0x214>
    3c7a:	f4 01       	movw	r30, r8
    3c7c:	10 82       	st	Z, r1
    3c7e:	12 c0       	rjmp	.+36     	; 0x3ca4 <vfscanf+0x214>
    3c80:	00 62       	ori	r16, 0x20	; 32
    3c82:	03 c0       	rjmp	.+6      	; 0x3c8a <vfscanf+0x1fa>
    3c84:	00 61       	ori	r16, 0x10	; 16
    3c86:	01 c0       	rjmp	.+2      	; 0x3c8a <vfscanf+0x1fa>
    3c88:	00 64       	ori	r16, 0x40	; 64
    3c8a:	20 2f       	mov	r18, r16
    3c8c:	a4 01       	movw	r20, r8
    3c8e:	6f 2d       	mov	r22, r15
    3c90:	c6 01       	movw	r24, r12
    3c92:	0e 94 db 1b 	call	0x37b6	; 0x37b6 <conv_int>
    3c96:	81 11       	cpse	r24, r1
    3c98:	05 c0       	rjmp	.+10     	; 0x3ca4 <vfscanf+0x214>
    3c9a:	f6 01       	movw	r30, r12
    3c9c:	83 81       	ldd	r24, Z+3	; 0x03
    3c9e:	80 73       	andi	r24, 0x30	; 48
    3ca0:	29 f4       	brne	.+10     	; 0x3cac <vfscanf+0x21c>
    3ca2:	06 c0       	rjmp	.+12     	; 0x3cb0 <vfscanf+0x220>
    3ca4:	00 fd       	sbrc	r16, 0
    3ca6:	0a cf       	rjmp	.-492    	; 0x3abc <vfscanf+0x2c>
    3ca8:	53 94       	inc	r5
    3caa:	08 cf       	rjmp	.-496    	; 0x3abc <vfscanf+0x2c>
    3cac:	55 20       	and	r5, r5
    3cae:	19 f0       	breq	.+6      	; 0x3cb6 <vfscanf+0x226>
    3cb0:	85 2d       	mov	r24, r5
    3cb2:	90 e0       	ldi	r25, 0x00	; 0
    3cb4:	02 c0       	rjmp	.+4      	; 0x3cba <vfscanf+0x22a>
    3cb6:	8f ef       	ldi	r24, 0xFF	; 255
    3cb8:	9f ef       	ldi	r25, 0xFF	; 255
    3cba:	df 91       	pop	r29
    3cbc:	cf 91       	pop	r28
    3cbe:	1f 91       	pop	r17
    3cc0:	0f 91       	pop	r16
    3cc2:	ff 90       	pop	r15
    3cc4:	ef 90       	pop	r14
    3cc6:	df 90       	pop	r13
    3cc8:	cf 90       	pop	r12
    3cca:	bf 90       	pop	r11
    3ccc:	af 90       	pop	r10
    3cce:	9f 90       	pop	r9
    3cd0:	8f 90       	pop	r8
    3cd2:	7f 90       	pop	r7
    3cd4:	6f 90       	pop	r6
    3cd6:	5f 90       	pop	r5
    3cd8:	08 95       	ret

00003cda <isspace>:
    3cda:	91 11       	cpse	r25, r1
    3cdc:	0c 94 88 1f 	jmp	0x3f10	; 0x3f10 <__ctype_isfalse>
    3ce0:	80 32       	cpi	r24, 0x20	; 32
    3ce2:	19 f0       	breq	.+6      	; 0x3cea <isspace+0x10>
    3ce4:	89 50       	subi	r24, 0x09	; 9
    3ce6:	85 50       	subi	r24, 0x05	; 5
    3ce8:	c8 f7       	brcc	.-14     	; 0x3cdc <isspace+0x2>
    3cea:	08 95       	ret

00003cec <strchr_P>:
    3cec:	fc 01       	movw	r30, r24
    3cee:	05 90       	lpm	r0, Z+
    3cf0:	06 16       	cp	r0, r22
    3cf2:	21 f0       	breq	.+8      	; 0x3cfc <strchr_P+0x10>
    3cf4:	00 20       	and	r0, r0
    3cf6:	d9 f7       	brne	.-10     	; 0x3cee <strchr_P+0x2>
    3cf8:	c0 01       	movw	r24, r0
    3cfa:	08 95       	ret
    3cfc:	31 97       	sbiw	r30, 0x01	; 1
    3cfe:	cf 01       	movw	r24, r30
    3d00:	08 95       	ret

00003d02 <strnlen_P>:
    3d02:	fc 01       	movw	r30, r24
    3d04:	05 90       	lpm	r0, Z+
    3d06:	61 50       	subi	r22, 0x01	; 1
    3d08:	70 40       	sbci	r23, 0x00	; 0
    3d0a:	01 10       	cpse	r0, r1
    3d0c:	d8 f7       	brcc	.-10     	; 0x3d04 <strnlen_P+0x2>
    3d0e:	80 95       	com	r24
    3d10:	90 95       	com	r25
    3d12:	8e 0f       	add	r24, r30
    3d14:	9f 1f       	adc	r25, r31
    3d16:	08 95       	ret

00003d18 <strnlen>:
    3d18:	fc 01       	movw	r30, r24
    3d1a:	61 50       	subi	r22, 0x01	; 1
    3d1c:	70 40       	sbci	r23, 0x00	; 0
    3d1e:	01 90       	ld	r0, Z+
    3d20:	01 10       	cpse	r0, r1
    3d22:	d8 f7       	brcc	.-10     	; 0x3d1a <strnlen+0x2>
    3d24:	80 95       	com	r24
    3d26:	90 95       	com	r25
    3d28:	8e 0f       	add	r24, r30
    3d2a:	9f 1f       	adc	r25, r31
    3d2c:	08 95       	ret

00003d2e <fgetc>:
    3d2e:	cf 93       	push	r28
    3d30:	df 93       	push	r29
    3d32:	ec 01       	movw	r28, r24
    3d34:	2b 81       	ldd	r18, Y+3	; 0x03
    3d36:	20 ff       	sbrs	r18, 0
    3d38:	33 c0       	rjmp	.+102    	; 0x3da0 <fgetc+0x72>
    3d3a:	26 ff       	sbrs	r18, 6
    3d3c:	0a c0       	rjmp	.+20     	; 0x3d52 <fgetc+0x24>
    3d3e:	2f 7b       	andi	r18, 0xBF	; 191
    3d40:	2b 83       	std	Y+3, r18	; 0x03
    3d42:	8e 81       	ldd	r24, Y+6	; 0x06
    3d44:	9f 81       	ldd	r25, Y+7	; 0x07
    3d46:	01 96       	adiw	r24, 0x01	; 1
    3d48:	8e 83       	std	Y+6, r24	; 0x06
    3d4a:	9f 83       	std	Y+7, r25	; 0x07
    3d4c:	8a 81       	ldd	r24, Y+2	; 0x02
    3d4e:	90 e0       	ldi	r25, 0x00	; 0
    3d50:	29 c0       	rjmp	.+82     	; 0x3da4 <fgetc+0x76>
    3d52:	22 ff       	sbrs	r18, 2
    3d54:	0f c0       	rjmp	.+30     	; 0x3d74 <fgetc+0x46>
    3d56:	e8 81       	ld	r30, Y
    3d58:	f9 81       	ldd	r31, Y+1	; 0x01
    3d5a:	80 81       	ld	r24, Z
    3d5c:	08 2e       	mov	r0, r24
    3d5e:	00 0c       	add	r0, r0
    3d60:	99 0b       	sbc	r25, r25
    3d62:	00 97       	sbiw	r24, 0x00	; 0
    3d64:	19 f4       	brne	.+6      	; 0x3d6c <fgetc+0x3e>
    3d66:	20 62       	ori	r18, 0x20	; 32
    3d68:	2b 83       	std	Y+3, r18	; 0x03
    3d6a:	1a c0       	rjmp	.+52     	; 0x3da0 <fgetc+0x72>
    3d6c:	31 96       	adiw	r30, 0x01	; 1
    3d6e:	e8 83       	st	Y, r30
    3d70:	f9 83       	std	Y+1, r31	; 0x01
    3d72:	0e c0       	rjmp	.+28     	; 0x3d90 <fgetc+0x62>
    3d74:	ea 85       	ldd	r30, Y+10	; 0x0a
    3d76:	fb 85       	ldd	r31, Y+11	; 0x0b
    3d78:	09 95       	icall
    3d7a:	97 ff       	sbrs	r25, 7
    3d7c:	09 c0       	rjmp	.+18     	; 0x3d90 <fgetc+0x62>
    3d7e:	2b 81       	ldd	r18, Y+3	; 0x03
    3d80:	01 96       	adiw	r24, 0x01	; 1
    3d82:	11 f0       	breq	.+4      	; 0x3d88 <fgetc+0x5a>
    3d84:	80 e2       	ldi	r24, 0x20	; 32
    3d86:	01 c0       	rjmp	.+2      	; 0x3d8a <fgetc+0x5c>
    3d88:	80 e1       	ldi	r24, 0x10	; 16
    3d8a:	82 2b       	or	r24, r18
    3d8c:	8b 83       	std	Y+3, r24	; 0x03
    3d8e:	08 c0       	rjmp	.+16     	; 0x3da0 <fgetc+0x72>
    3d90:	2e 81       	ldd	r18, Y+6	; 0x06
    3d92:	3f 81       	ldd	r19, Y+7	; 0x07
    3d94:	2f 5f       	subi	r18, 0xFF	; 255
    3d96:	3f 4f       	sbci	r19, 0xFF	; 255
    3d98:	2e 83       	std	Y+6, r18	; 0x06
    3d9a:	3f 83       	std	Y+7, r19	; 0x07
    3d9c:	99 27       	eor	r25, r25
    3d9e:	02 c0       	rjmp	.+4      	; 0x3da4 <fgetc+0x76>
    3da0:	8f ef       	ldi	r24, 0xFF	; 255
    3da2:	9f ef       	ldi	r25, 0xFF	; 255
    3da4:	df 91       	pop	r29
    3da6:	cf 91       	pop	r28
    3da8:	08 95       	ret

00003daa <fputc>:
    3daa:	0f 93       	push	r16
    3dac:	1f 93       	push	r17
    3dae:	cf 93       	push	r28
    3db0:	df 93       	push	r29
    3db2:	fb 01       	movw	r30, r22
    3db4:	23 81       	ldd	r18, Z+3	; 0x03
    3db6:	21 fd       	sbrc	r18, 1
    3db8:	03 c0       	rjmp	.+6      	; 0x3dc0 <fputc+0x16>
    3dba:	8f ef       	ldi	r24, 0xFF	; 255
    3dbc:	9f ef       	ldi	r25, 0xFF	; 255
    3dbe:	2c c0       	rjmp	.+88     	; 0x3e18 <fputc+0x6e>
    3dc0:	22 ff       	sbrs	r18, 2
    3dc2:	16 c0       	rjmp	.+44     	; 0x3df0 <fputc+0x46>
    3dc4:	46 81       	ldd	r20, Z+6	; 0x06
    3dc6:	57 81       	ldd	r21, Z+7	; 0x07
    3dc8:	24 81       	ldd	r18, Z+4	; 0x04
    3dca:	35 81       	ldd	r19, Z+5	; 0x05
    3dcc:	42 17       	cp	r20, r18
    3dce:	53 07       	cpc	r21, r19
    3dd0:	44 f4       	brge	.+16     	; 0x3de2 <fputc+0x38>
    3dd2:	a0 81       	ld	r26, Z
    3dd4:	b1 81       	ldd	r27, Z+1	; 0x01
    3dd6:	9d 01       	movw	r18, r26
    3dd8:	2f 5f       	subi	r18, 0xFF	; 255
    3dda:	3f 4f       	sbci	r19, 0xFF	; 255
    3ddc:	20 83       	st	Z, r18
    3dde:	31 83       	std	Z+1, r19	; 0x01
    3de0:	8c 93       	st	X, r24
    3de2:	26 81       	ldd	r18, Z+6	; 0x06
    3de4:	37 81       	ldd	r19, Z+7	; 0x07
    3de6:	2f 5f       	subi	r18, 0xFF	; 255
    3de8:	3f 4f       	sbci	r19, 0xFF	; 255
    3dea:	26 83       	std	Z+6, r18	; 0x06
    3dec:	37 83       	std	Z+7, r19	; 0x07
    3dee:	14 c0       	rjmp	.+40     	; 0x3e18 <fputc+0x6e>
    3df0:	8b 01       	movw	r16, r22
    3df2:	ec 01       	movw	r28, r24
    3df4:	fb 01       	movw	r30, r22
    3df6:	00 84       	ldd	r0, Z+8	; 0x08
    3df8:	f1 85       	ldd	r31, Z+9	; 0x09
    3dfa:	e0 2d       	mov	r30, r0
    3dfc:	09 95       	icall
    3dfe:	89 2b       	or	r24, r25
    3e00:	e1 f6       	brne	.-72     	; 0x3dba <fputc+0x10>
    3e02:	d8 01       	movw	r26, r16
    3e04:	16 96       	adiw	r26, 0x06	; 6
    3e06:	8d 91       	ld	r24, X+
    3e08:	9c 91       	ld	r25, X
    3e0a:	17 97       	sbiw	r26, 0x07	; 7
    3e0c:	01 96       	adiw	r24, 0x01	; 1
    3e0e:	16 96       	adiw	r26, 0x06	; 6
    3e10:	8d 93       	st	X+, r24
    3e12:	9c 93       	st	X, r25
    3e14:	17 97       	sbiw	r26, 0x07	; 7
    3e16:	ce 01       	movw	r24, r28
    3e18:	df 91       	pop	r29
    3e1a:	cf 91       	pop	r28
    3e1c:	1f 91       	pop	r17
    3e1e:	0f 91       	pop	r16
    3e20:	08 95       	ret

00003e22 <ungetc>:
    3e22:	fb 01       	movw	r30, r22
    3e24:	23 81       	ldd	r18, Z+3	; 0x03
    3e26:	20 ff       	sbrs	r18, 0
    3e28:	12 c0       	rjmp	.+36     	; 0x3e4e <ungetc+0x2c>
    3e2a:	26 fd       	sbrc	r18, 6
    3e2c:	10 c0       	rjmp	.+32     	; 0x3e4e <ungetc+0x2c>
    3e2e:	8f 3f       	cpi	r24, 0xFF	; 255
    3e30:	3f ef       	ldi	r19, 0xFF	; 255
    3e32:	93 07       	cpc	r25, r19
    3e34:	61 f0       	breq	.+24     	; 0x3e4e <ungetc+0x2c>
    3e36:	82 83       	std	Z+2, r24	; 0x02
    3e38:	2f 7d       	andi	r18, 0xDF	; 223
    3e3a:	20 64       	ori	r18, 0x40	; 64
    3e3c:	23 83       	std	Z+3, r18	; 0x03
    3e3e:	26 81       	ldd	r18, Z+6	; 0x06
    3e40:	37 81       	ldd	r19, Z+7	; 0x07
    3e42:	21 50       	subi	r18, 0x01	; 1
    3e44:	31 09       	sbc	r19, r1
    3e46:	26 83       	std	Z+6, r18	; 0x06
    3e48:	37 83       	std	Z+7, r19	; 0x07
    3e4a:	99 27       	eor	r25, r25
    3e4c:	08 95       	ret
    3e4e:	8f ef       	ldi	r24, 0xFF	; 255
    3e50:	9f ef       	ldi	r25, 0xFF	; 255
    3e52:	08 95       	ret

00003e54 <__ultoa_invert>:
    3e54:	fa 01       	movw	r30, r20
    3e56:	aa 27       	eor	r26, r26
    3e58:	28 30       	cpi	r18, 0x08	; 8
    3e5a:	51 f1       	breq	.+84     	; 0x3eb0 <__ultoa_invert+0x5c>
    3e5c:	20 31       	cpi	r18, 0x10	; 16
    3e5e:	81 f1       	breq	.+96     	; 0x3ec0 <__ultoa_invert+0x6c>
    3e60:	e8 94       	clt
    3e62:	6f 93       	push	r22
    3e64:	6e 7f       	andi	r22, 0xFE	; 254
    3e66:	6e 5f       	subi	r22, 0xFE	; 254
    3e68:	7f 4f       	sbci	r23, 0xFF	; 255
    3e6a:	8f 4f       	sbci	r24, 0xFF	; 255
    3e6c:	9f 4f       	sbci	r25, 0xFF	; 255
    3e6e:	af 4f       	sbci	r26, 0xFF	; 255
    3e70:	b1 e0       	ldi	r27, 0x01	; 1
    3e72:	3e d0       	rcall	.+124    	; 0x3ef0 <__ultoa_invert+0x9c>
    3e74:	b4 e0       	ldi	r27, 0x04	; 4
    3e76:	3c d0       	rcall	.+120    	; 0x3ef0 <__ultoa_invert+0x9c>
    3e78:	67 0f       	add	r22, r23
    3e7a:	78 1f       	adc	r23, r24
    3e7c:	89 1f       	adc	r24, r25
    3e7e:	9a 1f       	adc	r25, r26
    3e80:	a1 1d       	adc	r26, r1
    3e82:	68 0f       	add	r22, r24
    3e84:	79 1f       	adc	r23, r25
    3e86:	8a 1f       	adc	r24, r26
    3e88:	91 1d       	adc	r25, r1
    3e8a:	a1 1d       	adc	r26, r1
    3e8c:	6a 0f       	add	r22, r26
    3e8e:	71 1d       	adc	r23, r1
    3e90:	81 1d       	adc	r24, r1
    3e92:	91 1d       	adc	r25, r1
    3e94:	a1 1d       	adc	r26, r1
    3e96:	20 d0       	rcall	.+64     	; 0x3ed8 <__ultoa_invert+0x84>
    3e98:	09 f4       	brne	.+2      	; 0x3e9c <__ultoa_invert+0x48>
    3e9a:	68 94       	set
    3e9c:	3f 91       	pop	r19
    3e9e:	2a e0       	ldi	r18, 0x0A	; 10
    3ea0:	26 9f       	mul	r18, r22
    3ea2:	11 24       	eor	r1, r1
    3ea4:	30 19       	sub	r19, r0
    3ea6:	30 5d       	subi	r19, 0xD0	; 208
    3ea8:	31 93       	st	Z+, r19
    3eaa:	de f6       	brtc	.-74     	; 0x3e62 <__ultoa_invert+0xe>
    3eac:	cf 01       	movw	r24, r30
    3eae:	08 95       	ret
    3eb0:	46 2f       	mov	r20, r22
    3eb2:	47 70       	andi	r20, 0x07	; 7
    3eb4:	40 5d       	subi	r20, 0xD0	; 208
    3eb6:	41 93       	st	Z+, r20
    3eb8:	b3 e0       	ldi	r27, 0x03	; 3
    3eba:	0f d0       	rcall	.+30     	; 0x3eda <__ultoa_invert+0x86>
    3ebc:	c9 f7       	brne	.-14     	; 0x3eb0 <__ultoa_invert+0x5c>
    3ebe:	f6 cf       	rjmp	.-20     	; 0x3eac <__ultoa_invert+0x58>
    3ec0:	46 2f       	mov	r20, r22
    3ec2:	4f 70       	andi	r20, 0x0F	; 15
    3ec4:	40 5d       	subi	r20, 0xD0	; 208
    3ec6:	4a 33       	cpi	r20, 0x3A	; 58
    3ec8:	18 f0       	brcs	.+6      	; 0x3ed0 <__ultoa_invert+0x7c>
    3eca:	49 5d       	subi	r20, 0xD9	; 217
    3ecc:	31 fd       	sbrc	r19, 1
    3ece:	40 52       	subi	r20, 0x20	; 32
    3ed0:	41 93       	st	Z+, r20
    3ed2:	02 d0       	rcall	.+4      	; 0x3ed8 <__ultoa_invert+0x84>
    3ed4:	a9 f7       	brne	.-22     	; 0x3ec0 <__ultoa_invert+0x6c>
    3ed6:	ea cf       	rjmp	.-44     	; 0x3eac <__ultoa_invert+0x58>
    3ed8:	b4 e0       	ldi	r27, 0x04	; 4
    3eda:	a6 95       	lsr	r26
    3edc:	97 95       	ror	r25
    3ede:	87 95       	ror	r24
    3ee0:	77 95       	ror	r23
    3ee2:	67 95       	ror	r22
    3ee4:	ba 95       	dec	r27
    3ee6:	c9 f7       	brne	.-14     	; 0x3eda <__ultoa_invert+0x86>
    3ee8:	00 97       	sbiw	r24, 0x00	; 0
    3eea:	61 05       	cpc	r22, r1
    3eec:	71 05       	cpc	r23, r1
    3eee:	08 95       	ret
    3ef0:	9b 01       	movw	r18, r22
    3ef2:	ac 01       	movw	r20, r24
    3ef4:	0a 2e       	mov	r0, r26
    3ef6:	06 94       	lsr	r0
    3ef8:	57 95       	ror	r21
    3efa:	47 95       	ror	r20
    3efc:	37 95       	ror	r19
    3efe:	27 95       	ror	r18
    3f00:	ba 95       	dec	r27
    3f02:	c9 f7       	brne	.-14     	; 0x3ef6 <__ultoa_invert+0xa2>
    3f04:	62 0f       	add	r22, r18
    3f06:	73 1f       	adc	r23, r19
    3f08:	84 1f       	adc	r24, r20
    3f0a:	95 1f       	adc	r25, r21
    3f0c:	a0 1d       	adc	r26, r0
    3f0e:	08 95       	ret

00003f10 <__ctype_isfalse>:
    3f10:	99 27       	eor	r25, r25
    3f12:	88 27       	eor	r24, r24

00003f14 <__ctype_istrue>:
    3f14:	08 95       	ret

00003f16 <ccp_write_io>:
    3f16:	dc 01       	movw	r26, r24
    3f18:	28 ed       	ldi	r18, 0xD8	; 216
    3f1a:	20 93 34 00 	sts	0x0034, r18	; 0x800034 <__TEXT_REGION_LENGTH__+0x7e0034>
    3f1e:	6c 93       	st	X, r22
    3f20:	08 95       	ret

00003f22 <_exit>:
    3f22:	f8 94       	cli

00003f24 <__stop_program>:
    3f24:	ff cf       	rjmp	.-2      	; 0x3f24 <__stop_program>
